(dp0
S'Ghana'
p1
(dp2
S'gazId'
p3
S'00000908'
p4
sS'source'
p5
S'GAZ'
p6
sS'gazTerm'
p7
S'Ghana'
p8
ssS'Liberia'
p9
(dp10
g3
S'00000911'
p11
sg5
S'GAZ'
p12
sg7
S'Liberia'
p13
ssS'Madagascar'
p14
(dp15
g3
S'00001108'
p16
sg5
S'GAZ'
p17
sg7
S'Madagascar'
p18
ssS'Angola'
p19
(dp20
g3
S'00001095'
p21
sg5
S'GAZ'
p22
sg7
S'Angola'
p23
ssS'Democratic Republic of the Congo'
p24
(dp25
g3
S'00001086'
p26
sg5
S'GAZ'
p27
sg7
S'Democratic Republic of the Congo'
p28
ssS'Country'
p29
(dp30
g3
S'Term Accession Number'
p31
sg5
S'Term Source Ref'
p32
sg7
S'Characteristics [Collection site (VBcv:0000831)]'
p33
ssS'Zambia'
p34
(dp35
g3
S'00001107'
p36
sg5
S'GAZ'
p37
sg7
S'Zambia'
p38
ssS'Burkina Faso'
p39
(dp40
g3
S'00000905'
p41
sg5
S'GAZ'
p42
sg7
S'Burkina Faso'
p43
ssS'Ethiopia'
p44
(dp45
g3
S'00000567'
p46
sg5
S'GAZ'
p47
sg7
S'Ethiopia'
p48
ssS'Senegal'
p49
(dp50
g3
S'00000913'
p51
sg5
S'GAZ'
p52
sg7
S'Senegal'
p53
ssS'Zimbabwe'
p54
(dp55
g3
S'00001106'
p56
sg5
S'GAZ'
p57
sg7
S'Zimbabwe'
p58
ssS'Rwanda'
p59
(dp60
g3
S'00001087'
p61
sg5
S'GAZ'
p62
sg7
S'Rwanda'
p63
ssS'Uganda'
p64
(dp65
g3
S'00001102'
p66
sg5
S'GAZ'
p67
sg7
S'Uganda'
p68
ssS'Mali'
p69
(dp70
g3
S'00000584'
p71
sg5
S'GAZ'
p72
sg7
S'Mali'
p73
ssS'Burundi'
p74
(dp75
g3
S'00001090'
p76
sg5
S'GAZ'
p77
sg7
S'Burundi'
p78
ssS'Mozambique'
p79
(dp80
g3
S'00001100'
p81
sg5
S'GAZ'
p82
sg7
S'Mozambique'
p83
ssS'Nigeria'
p84
(dp85
g3
S'00000912'
p86
sg5
S'GAZ'
p87
sg7
S'Nigeria'
p88
ssS'Tanzania, United Republic of'
p89
(dp90
g3
S'00001103'
p91
sg5
S'GAZ'
p92
sg7
S'Tanzania'
p93
ssS'Malawi'
p94
(dp95
g3
S'00001105'
p96
sg5
S'GAZ'
p97
sg7
S'Malawi'
p98
ssS'Kenya'
p99
(dp100
g3
S'00001101'
p101
sg5
S'GAZ'
p102
sg7
S'Kenya'
p103
ssS'Benin'
p104
(dp105
g3
S'00000904'
p106
sg5
S'GAZ'
p107
sg7
S'Benin'
p108
ss.