(dp0
S'Lambda-cyhalothrin 0.05%'
p1
(dp2
S'ins_term'
p3
S'lambda-cyhalothrin'
p4
sS'conc_unit'
p5
S'percent'
p6
sS'ins_id'
p7
S'10000125'
p8
sS'ins_source'
p9
S'MIRO'
p10
sS'conc'
p11
S'0.05'
p12
sS'conc_id'
p13
S'0000187'
p14
sS'conc_source'
p15
S'UO'
p16
ssS'DDT 4.0%'
p17
(dp18
g3
S'DDT'
p19
sg5
S'percent'
p20
sg7
S'10000157'
p21
sg9
S'MIRO'
p22
sg11
S'4'
p23
sg13
S'0000187'
p24
sg15
S'UO'
p25
ssS'Permethrin 12.5\xc3\xa6g'
p26
(dp27
g3
S'permethrin'
p28
sg5
S'microgram'
p29
sg7
S'10000144'
p30
sg9
S'MIRO'
p31
sg11
S'12.5'
p32
sg13
S'0000023'
p33
sg15
S'UO'
p34
ssS'Alphacypermethrin'
p35
(dp36
g3
S'alpha-cypermethrin'
p37
sg5
S''
p38
sg7
S'10000128'
p39
sg9
S'MIRO'
p40
sg11
g38
sg13
g38
sg15
g38
ssS'Deltamethrin 0.05%'
p41
(dp42
g3
S'deltamethrin'
p43
sg5
S'percent'
p44
sg7
S'10000133'
p45
sg9
S'MIRO'
p46
sg11
S'0.05'
p47
sg13
S'0000187'
p48
sg15
S'UO'
p49
ssS'Malathion 5.0%'
p50
(dp51
g3
S'malathion'
p52
sg5
S'percent'
p53
sg7
S'10000065'
p54
sg9
S'MIRO'
p55
sg11
S'5'
p56
sg13
S'0000187'
p57
sg15
S'UO'
p58
ssS'Pirimiphos?methyl 0.25%'
p59
(dp60
g3
S'pirimiphos-methyl'
p61
sg5
S'percent'
p62
sg7
S'10000082'
p63
sg9
S'MIRO'
p64
sg11
S'0.25'
p65
sg13
S'0000187'
p66
sg15
S'UO'
p67
ssS'NA'
p68
(dp69
g3
g38
sg5
g38
sg7
g38
sg9
g38
sg11
g38
sg13
g38
sg15
g38
ssS'Cyfluthrin 0.15%'
p70
(dp71
g3
S'cyfluthrin'
p72
sg5
S'percent'
p73
sg7
S'10000122'
p74
sg9
S'MIRO'
p75
sg11
S'0.15'
p76
sg13
S'0000187'
p77
sg15
S'UO'
p78
ssS'Pirimiphos-methyl 1.0%'
p79
(dp80
g3
S'pirimiphos-methyl'
p81
sg5
S'percent'
p82
sg7
S'10000082'
p83
sg9
S'MIRO'
p84
sg11
S'1'
p85
sg13
S'0000187'
p86
sg15
S'UO'
p87
ssS'Lambda-cyhalothrin 0.75%'
p88
(dp89
g3
S'lambda-cyhalothrin'
p90
sg5
S'percent'
p91
sg7
S'10000125'
p92
sg9
S'MIRO'
p93
sg11
S'0.75'
p94
sg13
S'0000187'
p95
sg15
S'UO'
p96
ssS'Deltamethrin 12.5\xc3\xa6g'
p97
(dp98
g3
S'deltamethrin'
p99
sg5
S'microgram'
p100
sg7
S'10000133'
p101
sg9
S'MIRO'
p102
sg11
S'12.5'
p103
sg13
S'0000023'
p104
sg15
S'UO'
p105
ssS'Deltamethrin 0.025%'
p106
(dp107
g3
S'deltamethrin'
p108
sg5
S'percent'
p109
sg7
S'10000133'
p110
sg9
S'MIRO'
p111
sg11
S'0.025'
p112
sg13
S'0000187'
p113
sg15
S'UO'
p114
ssS'Bendiocarb 1.0%'
p115
(dp116
g3
S'bendiocarb'
p117
sg5
S'percent'
p118
sg7
S'10000006'
p119
sg9
S'MIRO'
p120
sg11
g85
sg13
S'0000187'
p121
sg15
S'UO'
p122
ssS'Pirimiphos-methyl 20\xc3\xa6g'
p123
(dp124
g3
S'pirimiphos-methyl'
p125
sg5
S'microgram'
p126
sg7
S'10000082'
p127
sg9
S'MIRO'
p128
sg11
S'20'
p129
sg13
S'0000023'
p130
sg15
S'UO'
p131
ssS'Bendiocarb 0.1%'
p132
(dp133
g3
S'bendiocarb'
p134
sg5
S'percent'
p135
sg7
S'10000006'
p136
sg9
S'MIRO'
p137
sg11
S'0.1'
p138
sg13
S'0000187'
p139
sg15
S'UO'
p140
ssS'DDT 100\xc3\xa6g'
p141
(dp142
g3
S'DDT'
p143
sg5
S'microgram'
p144
sg7
S'10000157'
p145
sg9
S'MIRO'
p146
sg11
S'100'
p147
sg13
S'0000023'
p148
sg15
S'UO'
p149
ssS'Permethrin 0.75%'
p150
(dp151
g3
S'permethrin'
p152
sg5
S'percent'
p153
sg7
S'10000144'
p154
sg9
S'MIRO'
p155
sg11
S'0.75'
p156
sg13
S'0000187'
p157
sg15
S'UO'
p158
ssS'Malathion 0.5%'
p159
(dp160
g3
S'malathion'
p161
sg5
S'percent'
p162
sg7
S'10000065'
p163
sg9
S'MIRO'
p164
sg11
S'0.5'
p165
sg13
S'0000187'
p166
sg15
S'UO'
p167
ssS'Fenitrothion 50\xc3\xa6g'
p168
(dp169
g3
S'fenitrothion'
p170
sg5
S'microgram'
p171
sg7
S'10000056'
p172
sg9
S'MIRO'
p173
sg11
S'50'
p174
sg13
S'0000023'
p175
sg15
S'UO'
p176
ssS'Alphacypermethrin 0.4%'
p177
(dp178
g3
S'alpha-cypermethrin'
p179
sg5
S'percent'
p180
sg7
S'10000128'
p181
sg9
S'MIRO'
p182
sg11
S'0.4'
p183
sg13
S'0000187'
p184
sg15
S'UO'
p185
ssS'Permethrin'
p186
(dp187
g3
S'permethrin'
p188
sg5
g38
sg7
S'10000144'
p189
sg9
S'MIRO'
p190
sg11
g38
sg13
g38
sg15
g38
ssS'Insecticide tested'
p191
(dp192
g3
S'Parameter Value [group1.insecticidal substance]'
p193
sg5
S'Unit'
p194
sg7
S'Term Accession Number'
p195
sg9
S'Term Source Ref'
p196
sg11
S'Parameter Value [group1.concentration]'
p197
sg13
S'Term Accession Number'
p198
sg15
S'Term Source Ref'
p199
ssS'Fenitrothion 1.0%'
p200
(dp201
g3
S'fenitrothion'
p202
sg5
S'percent'
p203
sg7
S'10000056'
p204
sg9
S'MIRO'
p205
sg11
g85
sg13
S'0000187'
p206
sg15
S'UO'
p207
ssS'Alphacypermethrin 12.5\xc3\xa6g'
p208
(dp209
g3
S'alpha-cypermethrin'
p210
sg5
S'microgram'
p211
sg7
S'10000128'
p212
sg9
S'MIRO'
p213
sg11
S'12.5'
p214
sg13
S'0000023'
p215
sg15
S'UO'
p216
ssS'Dieldrin 4.0%'
p217
(dp218
g3
S'dieldrin'
p219
sg5
S'percent'
p220
sg7
S'10000160'
p221
sg9
S'MIRO'
p222
sg11
g23
sg13
S'0000187'
p223
sg15
S'UO'
p224
ssS'Alphacypermethrin 0.05%'
p225
(dp226
g3
S'alpha-cypermethrin'
p227
sg5
S'percent'
p228
sg7
S'10000128'
p229
sg9
S'MIRO'
p230
sg11
S'0.05'
p231
sg13
S'0000187'
p232
sg15
S'UO'
p233
ssS'Fenitrothion 0.1%'
p234
(dp235
g3
S'fenitrothion'
p236
sg5
S'percent'
p237
sg7
S'10000056'
p238
sg9
S'MIRO'
p239
sg11
S'0.1'
p240
sg13
S'0000187'
p241
sg15
S'UO'
p242
ssS'Propoxur 0.1%'
p243
(dp244
g3
S'propoxur'
p245
sg5
S'percent'
p246
sg7
S'10000023'
p247
sg9
S'MIRO'
p248
sg11
S'0.1'
p249
sg13
S'0000187'
p250
sg15
S'UO'
p251
ssS'Pirimiphos-methyl 0.05%'
p252
(dp253
g3
S'pirimiphos-methyl'
p254
sg5
S'percent'
p255
sg7
S'10000082'
p256
sg9
S'MIRO'
p257
sg11
S'0.05'
p258
sg13
S'0000187'
p259
sg15
S'UO'
p260
ssS'Cypermethrin 1%'
p261
(dp262
g3
S'cypermethrin'
p263
sg5
S'percent'
p264
sg7
S'10000127'
p265
sg9
S'MIRO'
p266
sg11
g85
sg13
S'0000187'
p267
sg15
S'UO'
p268
ssS'Lambda-cyhalothrin 12.5\xc3\xa6g'
p269
(dp270
g3
S'lambda-cyhalothrin'
p271
sg5
S'microgram'
p272
sg7
S'10000125'
p273
sg9
S'MIRO'
p274
sg11
S'12.5'
p275
sg13
S'0000023'
p276
sg15
S'UO'
p277
ssS' Malathion 5.0%'
p278
(dp279
g3
S'malathion'
p280
sg5
S'percent'
p281
sg7
S'10000065'
p282
sg9
S'MIRO'
p283
sg11
g56
sg13
S'0000187'
p284
sg15
S'UO'
p285
ssS'Bendiocarb 12.5\xc3\xa6g'
p286
(dp287
g3
S'bendiocarb'
p288
sg5
S'microgram'
p289
sg7
S'10000006'
p290
sg9
S'MIRO'
p291
sg11
S'12.5'
p292
sg13
S'0000023'
p293
sg15
S'UO'
p294
ssS'Alphacypermethrin 0.1%'
p295
(dp296
g3
S'alpha-cypermethrin'
p297
sg5
S'percent'
p298
sg7
S'10000128'
p299
sg9
S'MIRO'
p300
sg11
S'0.1'
p301
sg13
S'0000187'
p302
sg15
S'UO'
p303
ssS'Etofenprox 0.5%'
p304
(dp305
g3
S'etofenprox'
p306
sg5
S'percent'
p307
sg7
S'10000136'
p308
sg9
S'MIRO'
p309
sg11
S'0.5'
p310
sg13
S'0000187'
p311
sg15
S'UO'
p312
ss.