(dp0
S'An. pharoensis'
p1
(dp2
S'miroTerm'
p3
S'Anopheles pharoensis'
p4
sS'miroId'
p5
S'40003564'
p6
ssS'An. arabiensis'
p7
(dp8
g3
S'Anopheles arabiensis'
p9
sg5
S'40002224'
p10
ssS'An. coustani'
p11
(dp12
g3
S'Anopheles coustani'
p13
sg5
S'40000064'
p14
ssS'An. gambiae s.l.'
p15
(dp16
g3
S'Anopheles gambiae sensu lato'
p17
sg5
S'40003480'
p18
ssS'An. funestus s.l.'
p19
(dp20
g3
S'Anopheles funestus sensu lato'
p21
sg5
S'40003478'
p22
ssS'An. funestus'
p23
(dp24
g3
S'Anopheles funestus'
p25
sg5
S'40003834'
p26
ssS'Species tested'
p27
(dp28
g3
S'Characteristics [species assay result (VBcv:0000961)]'
p29
sg5
S'Term Accession Number'
p30
ssS'An. gambiae s.s.'
p31
(dp32
g3
S'Anopheles gambiae'
p33
sg5
S'40003829'
p34
ss.