(dp0
S'NR'
p1
(dp2
S'accn'
p3
S'655'
p4
sS'termSourceRef'
p5
S'IDOMAL'
p6
sS'ontoTermAdult'
p7
S'adult'
p8
ssS'F0 adults (from wild larvae)'
p9
(dp10
g3
S'655'
p11
sg5
S'IDOMAL'
p12
sg7
S'adult'
p13
ssS'F0 adults (wild collected) '
p14
(dp15
g3
S'655'
p16
sg5
S'IDOMAL'
p17
sg7
S'adult'
p18
ssS'F1 adults (progeny of wild adults)'
p19
(dp20
g3
S'655'
p21
sg5
S'IDOMAL'
p22
sg7
S'adult'
p23
ssS'Stage tested (and origin)'
p24
(dp25
g3
S'Term Accession Number'
p26
sg5
S'Term Source Ref'
p27
sg7
S'Characteristics [developmental stage (EFO:0000399)]'
p28
ss.