(dp0
S'Mar'
p1
S'03'
p2
sS'Feb'
p3
S'02'
p4
sS'Aug'
p5
S'08'
p6
sS'Sep'
p7
S'09'
p8
sS'Apr'
p9
S'04'
p10
sS'Jun'
p11
S'06'
p12
sS'Jul'
p13
S'07'
p14
sS'Oct'
p15
S'10'
p16
sS'Jan'
p17
S'01'
p18
sS'May'
p19
S'05'
p20
sS'Start month'
p21
S'xx-oo-xx/xx-xx-xx'
p22
sS'Jul, Aug'
p23
S'07'
p24
sS'Nov'
p25
S'11'
p26
sS'Dec'
p27
S'12'
p28
sS'NR'
p29
S''
p30
s.