(dp0
S'2009-2010'
p1
(dp2
S'yearStart'
p3
S'2009'
p4
sS'yearEnd'
p5
S'2010'
p6
ssS'2009-2011'
p7
(dp8
g3
S'2009'
p9
sg5
S'2011'
p10
ssS'2011-2012'
p11
(dp12
g3
S'2011'
p13
sg5
S'2012'
p14
ssS'2006'
p15
(dp16
g3
S'2006'
p17
sg5
S'2006'
p18
ssS'2007'
p19
(dp20
g3
S'2007'
p21
sg5
S'2007'
p22
ssS'2006-2008'
p23
(dp24
g3
S'2006'
p25
sg5
S'2008'
p26
ssS'Year'
p27
(dp28
g3
S'Start Year'
p29
sg5
S'End Year'
p30
ssS'2014'
p31
(dp32
g3
S'2014'
p33
sg5
S'2014'
p34
ssS'2008'
p35
(dp36
g3
S'2008'
p37
sg5
S'2008'
p38
ssS'2009'
p39
(dp40
g3
S'2009'
p41
sg5
S'2009'
p42
ssS'2011'
p43
(dp44
g3
S'2011'
p45
sg5
S'2011'
p46
ssS'2010'
p47
(dp48
g3
S'2010'
p49
sg5
S'2010'
p50
ssS'2013'
p51
(dp52
g3
S'2013'
p53
sg5
S'2013'
p54
ssS'2012'
p55
(dp56
g3
S'2012'
p57
sg5
S'2012'
p58
ss.