(dp0
S'AGAP004706_2000bp'
p1
S'CTCTCGATGCAAAATAAACCCCAACCAAAAGGATAGTGCATCGCACGTTTCTCGCAAAAGTAAAAGCTCTGTGGCAACGACACTGAAGCTAGAACGTTTAGCTAAAGAGCGAAGGTTGGAAGTCGAAGCGCTTCAAACTGAAATGAGTAAAAGAATCGCGAAATTGAATTCGGATTACGAAGCGATGAAGCAACAGATAGAGGATGAGAGTGTTAGCAAGAGAAGTGGTCGCAGCGTTAGTGAAACATCACAAGTCGTTGATTGGTTAACCAGTGACCATGAGCGAAAAGTACTTCCTAACCCCTGCACAAGTACCGCGGAAGAACGTGAGAGTGCGAGGCGATTGTGGGGTAGAAAGCTACCAGCGTTTTCCGGTTCGATAAAACAGTGGCCTGTGTTCTATAGCTACTACAATCGGTCATCCGAGGCGTGTGGTTTTACTTCGGTCGAAAACATCATCCGGCTTGAAGAAGCGCTTACCGGACCAGCAAGAGAAGTGGTGGAATCCAAGTTCACCTCTCCAGATGCAGCTCCCCAGGTCATGAATTTGCTGAAGCAGTTGTATTTTAGTAAAAGAATTGATCGAGCAGGCACGGCAAATCGAGAACCCGAAACCAGAGCGCTTGGACCAATTGATATCTTTTGGTATAGCAGTCCAAAAGTTATGCGATCATTTGACGGCCAACGAAATGGAAGATCATTTCTCTAATCCGGAACTGCTGGAAGAACTGGTAAGAAAACTGCCGGCCAACAGAGCTTTGGAGTGGGTGCGATTCAAAAGGAACTTCGTTAAACCAACGCTAAAGGAATTCTGCGCTTTCATGGAAGAGCTGACTGAAGACTGTTGTGAATTAACAGTGCCTGCTAATGTAGAAGCTCTTCGTGCGCCACCAAGAAACATTCGAGGTCATTCCTTCCTGCACGTGTCCAATGCGGTTGAATCCGCAAGTAGAGTAAACACGAACGGCCAAAATTCTCATCATGCGCAAGCTACACCATCGCGAACGAGTGTGAAGTGCTATGTATGTGAAGATCCAATGCATCGCGTCCGTCAATGTGGAGTCTTCAGAGCCATGACGGTTACAGATCGTCATGCTACAGTCAGTAGGTTGCAACTTTGCGCGAATTGCCTGGGCAGTCATGGAACGAGACCATGCAAATCTACGTTCGTCTGTAGAGTGGTGGGATGCGGTATTCGGCATCATACACTGCTCCATCAAGAACCATCCGCTTCCACGTCAAGTGCGCAGTGTTATGCTCACGTAGAGAAATCGACGACGACGCTATTTCGAATAGTTCCGGTGACTGTTTATCATGGCCAACGCAGTATCGACACGTATGCTTTCTTGGATGAAGGATCTTCTCTGACACTGGTGGAAACGTCGCTAGCCCAACAGTTAGGACTTGAAGGTGCTCGTGATCCTCTAGAGCTGTGCTGGACTGGCAATTACTGCAGGAGAGAGGAATCATCGCAACGTGTGCAGCTGGAGATATCGGCCAGGGGCGGTGAGCGGCGCGACTCTATAGCGGCCGCTCACACCATAAATCAGCTAAGTTTACCGACTCAGTCAATTGACACTTCACTGATATTGAATTTGAATTACTTCCAGGAACTTCCGGCGATACAGTATCGTAACGCAGTACCTCAACTGCTGATTGGGCTGCAAGACGTGTCGCTGATGAAGCCACTGGAAGTGCGATCGGGCGAGGAAGGTCAACCAATTGCTGTGCGAAGTCTACTAGGCTGGTCGATTTATGATCCAAAAAGCATCGACGGATCGACAGCAGCAACGCCATTCCCGGTCCACCGTCACGAAAGAATATCGAGTGTAGATGAAACTGTGCAACATCCGAACAGCATGGACCGACAAGGGCTACTTGAAGTGAACATCGCGCAGAACATCACAGCAGTTGCGGAAGATAGTTCAGCCGAAAGCAGCATGTAAACGCTGATCAGACGACTCATGAAATGCTACGCCAGTATTTCACTCTCGTAGGTA'
p2
sS'AGAP004720_2000bp'
p3
S'TCATAAAGATTTCCGTAGCAGATGAAGTGCACAGATCGAAACCAGCGGTTCGAGTAGAGTTTTGCATTCATCATAACTCTTCTCTTAATACTCCNNNNNNNNNNNNNNNNNNNNCTTAAATTCTTTCGTATTACAAGCCTTAATAAAAAACTCTACCCAAAACCAAAACCACATTTATAGCAAACAATAAAATCAATTGATAGCTTTAAGTAAACCGAGATTACCCGGTATAAGGTATCTGCAAGCCACAAATGGCTTGCAAAGAAGAATGTTAGAATTTTAAGCCTAGAAATAATTCATCGATTGAAAGAGACGAGTGAGGCCAATTGGTTCAAAGTCTCTATAAATATAAACAAACAAACAAATTATTGGTCCGATTAATATCCGGGGGACGACTCTGTGTCCCGCACACTGTCGTACGTACACTAAGCGCGGGCCACTTAGTGTGTGTCGTGCGCTCGAACAACCGAGTTTGTTGCGAGCAGCCAGTCGAGCAGGGCTCCCGGCAGGGCACGGTTTGCTTTAATGTGTATTGTGCTTGTTCATATTATTATTATTTATTTATATTTATAATAATAATATGAGTTTATATTTATATTTATTATGTGTACTGTTTATATTAGTGTTATAATAAAAGTACCTAAGTGAAAAGCTAAACACAACACTTATGTTAAGGAATTTGCCTAGCATGCGCAAGGTACATAGCATATCGTTAATAGCAGCGGTTTCAACCGAGGGAGAATTCCTCCCAAGGGGCGAATTTCGACTTTGTTGAGAGGGGGATAATTTTCGATCAAAATTTCCCAAAATGCCATTTATCAAAACTAGAATATTTATATATTCAAAAGTAAGAATCAAAAACGGATTATTCATCCAAAAATTTACTGTATTTGAACATTGTAGAAGTTTGTTGAAACTCAAATTTTAGGTGCAAACACTCCCTAGTAAAGCTGAAATAAGCCTATAAAGTTACAAAATGATTTACAGATATATGTTATAAGCTAAAGAAAATATGCTTAGAGTTTCGGGTCCCGATCAGCTATTCGTTGTATAATTTCATTTCATTTCATTTACAGTCTGTTCCCGAGTCACGCGGTTCTCGACTTACGCGGATTTGGAATACGCGGTTTTCGAAATTTGACAGATCAAACGTCAAATCGATATACAGGCGTCCGCCGAGTTAGGCCCGTGTCTGTGCTCCATCGGATGCGATTTTATCGGAAGGCCTGTCAAAATTTTATATGTGATTGGACAGATAACGTCGAACGTGCGATTTCGTCGTACGACGGAATCAAATTTTTTTGATTTCGTCGGACGCCGCATCCGATTTTATCTGTCAAACTAAATGTATGGTGTTTTGTAGGAACAATTTCAACTTAATTTTTCATAATCGTTATATTATTAAGATCATTTTCTGTTAAAAAGTTAAATAATTAAATTATTAGTTAAATTAGTTCTGTTTTCTGATTTCAAAAATTCTTTAACCTTTTTGATTCATAAAATAAATACAATCCTCCAAATTGCGATGAATGATTAAATTTTTTCTTACATTTCAGGACACGTCCAGAAACTGAGCAAAAGCAAAGCAACTGCCGATAAGCTACGCTTTTAAATGCGTACAAACATTCAAGTTTGAGGATCAAAACATTTTTAAACTCAATAAATCAATATTTTCCAATTATGAACACTAAACCACCGCTTCAAGTTTCGAATTTTATTGGCGGTGGTAGCACATCGCGACCACAAAGTCCGTCGCTTTGTTTTTCTACCACATCATCCAAGATAGATAAAAATGAATCGGTATCTCTCTGCGGATGTCAGCAAGCCCCGAAATCTCAATGCGCTTCCGCGCTAGGTATTGTATTCGCATGACCAAGGNNNNNNNNNNNNNNNNNNNNCGCTTGGATCTGTACTTTTCGTCACACTTGAAGGAGATGGGGAAGATGGCGATATTATTGAGACTTCTGTTGCTGCATCCAAACCATATCCTAGACACGAGT'
p4
sS'AGAP004760_2000bp'
p5
S'TAATTATTGTTAAACTTTTCAATCAATTATAACATCAAATATAAAGGATTGAAACGTATTAAACTATTGTGTGTACATAATCCATGTGTATGCACTGTATGTGTTTTGGCATGGACGTTTGTTTACATTTTTCAATATTAAATTTGAATGATTTCTATGTTATTATAGATGTGAATAACTAGTAAATTATGAGTTGAATCTTCCCCCTGTAGGTGGATATTCATTTAAACTATGAAAATGCTTCATTTTCGAGACGAAAAGAAAGGCGTATTGCAGTGCATCATGACAGGTCTATAAGACATCGAACAGCTGACAGAGCACCTATCGAACAGAGTCGTGTTTGTTTGTCTCGTTCGATTGGTCCCAGAGCGCCGCCTAAGGCGACGTGCATGCTGGAAGAAGGTGCTGTGGATGCTCTGTACTTGGAGGAGGCACATTTTATGAGCCTGAGTGATGATTGTCAGCTGGTGGGCGCTGAAGTTTCTGATCGTTGGTTTTGGGCAGCGGTCGGACTTGTGCTACTGTAGTAAGTTCGGAAGATAGTTACGGTCGCCATGTAATGTGATGAGCGTACATACGGTACAACTGATCAACACGTACCATCGCGGTAGGACAGTGTTTCGCTGACATGTATCGAGGTAGAATAACACTTTGTTCAAAGCGGACTTTTCGACACTTGATCGTCCTGGCGATCATAGAAACCTTTAGGAGGTTTCCCTTACTGGAAACGTTGGAGTTTAGAGGCCTTACCTTGGGTAGGGGGACATAACTAAACTCTTTAAATGAGAATATATGTTGGATGGGCATAGTCCTATCCTGACAGTCCGAACGAATCTGACTTGCCATGATCGGAGTTGGTTTTATTTATACTCAAAATATGTTATGGGTTTCGTACATTTGGTTTTGGAATATGTTTTTGTCCTAATTAAATGTTATTGTTATTGGTAACAATTTATAAATTGAAATGGTGTGAGGTGTTTGTCGATGTGTGCCTATGCTTCGGTTTCACTGTATTGCGAAATAAGGTTTCAACTATTGTTGCTAAAGAATGGATGTTTTCGTCACTGAGCTTATAACTTGCTATGCGTTCTTGGTTCACCTAGTTTGCCTGCAGTAACGCCTGATTTGCTTATTATGCGTCTTTCGGGTGTTTTCAAGAAGTGTGTCATAATTGTTTTTATATGAACGGTGCGGCGTGAATTCTTCCGGTTGCTTTGTTATGGTATGATATGATTTGCTGAGTGTGTTATAATGATTATGTAGCAATGGTGTGATCTCTATAGCTGATAGTGTGGTTTATAACAAGTTCTGTTTAGCAGATATGCTACACTACTATCTCGAAATCGCGGGCCCAGCCCTCATCATACAGGATACGTGTCCCCCCCAAGTTGGACAAGTTTATTTTGTATAAACTTTCTATACAAATGTTTTATATAGGTGGCAAAAATTGGATTAAAAAACCATGCAAACCAAATTGGTTTAAAATACCCAATAATGACGCGGGTGAAACCCGAAAGTTAAACTCCCGATAAAACCCTAACAAATAAATAACCCTGGTACAACGCTCCTCATATGCTATTATCGTGGCATGAGATCATCATTCGCTGCCAACAAAAATAAGCCCACACTTATCGGAATTCAAAACACACAGTTTATGAGAACAGCCTGTACAACTTCACAATAACTTATCCATATGCAACAGCAGAAATGTTGCTTAGTAGAAAAAAAGCATCGTGACTAGTTTTCAAAAACTCAACAACAACGCTAACAATTCATACAACTTTTCGAAAGGAATAAATCAACCCATTGTACTGTCTACATAAAACTGTATCGCAAATAAGAAACTGAACAGATCAATACAAGATGTGGCCACTGGTTGTTCTTTCGTTTTGTTTCGTGCAAACCGTCCTAAGCCGTAAGTAACTCGACATTGGCTACAAGCTCACCCACGTCCCAATTTATCCACATCCACAATATCTTATATTCACGCAGAATGTACA'
p6
sS'AGAP004749_1383bp'
p7
S'ACTAGGATTTTTGGATGCAAAATCGATCACGCTTAAACGGATGAGAAAAAAAGATGATCGAGGCGAAAAAACGGGAAATGTTAGAAATAAACTTTAGGAGAAATAATGTTAAACACATTTCCTTATGCTGAAAATACCCGCACGAGTATAATACGATGAACTTTCCCTAACGAGCTCAATCCGTTTGTTCCTTTGTTTCAACACGTTAAGGTCCATTTAGTGGTCGAATGATGGTGGCTTGTTCAATTTCGAGATTTTTGTTTGAATTGATAATGTTTTATCATCATACAGCGTTCCGTATTACCAAAAATACAATATCTCGTATCTATTACTTTAACATATCAAAAATGCGCTGCGTTCACAGTTGAATTGCATTGTTGTAAAACGTTGCAGATGGTTGGGGAATAGAATATAGTGTCAATATAATGTTTAATATATATTATACATCGCTACATTTGGAAGGATGTTAAACGAAAAAAAAAATCAAATATCACTTCACACGCTCACTCGATCACACTAAATGGACCACCTTTGCTCGGATTAAACAGTCGTGTTTATTATGAAAGAGTCCCGCAGGGTATTATTTCGCAGTTCGTGATTTATCACTTGTTACATATTCATACACATCAGTCAAGGTAATTAATGCACCCCCAGTGCACATCAAAATGTTGTGCATGTTAGACGTTATTTTATTTCTTGAACAATCAAACCGAATGTTTTCCAATAACTGGCCCTGCAGCAATATGTTATTTGCATATGCCTGGTAGAGAGGATGGAATACGAACGATGGGTTTTATCATTAGCTAAAATGTCATTGAAACTGTACTTCGATCGACGTAATTTCAATTGGATCATAAATAAAACCTTTTATTTTTTCTTCTGCCAATCTTGATGTTCCGTTTGGATTGTTTACATTTATGCTTTTGCATACTTTCAATGCAAAATATGTGCATATACTGCAAAGTATAGTTTTGTGAAGGACGCCGGAAACTAATACGATAGAATTGGTTGCAAAATGTAATGTAATGTAAAGGGGGAGCATATTTCATACAGAAGGGAAGTGCACGCATTTTTTTACGTTTTTTTTTAATGTGCATGATAAGATATTTTGCTACACTAACGATCATAGATCTTTACATTGAGAACAGTCAACTATCTGTGACGAGCGCCTTAAAATGATCAGCGCAATAAAAGAATCGCTTATTGAGCTCTCAATATCTGTATTATTCTCCTTGGCTATTCGAAACACTTTATTCTTTCCATCAATTGTAAAAAATAAAAATATTATGGAAATAAACTAATCCTTATCCTGGAGTTGCAGCGAATTTCAAACCAAGATGATAGTAACGTTATTTTTAGATAAAGTGATTTTATAGCTGCTTT'
p8
sS'AGAP004717_2000bp'
p9
S'ATCCAATTCTTCTTCCTTAAGATTAAATTAAATTGTTTTATCGATATAAAATTTCATCCTCATCATAGTATGTGTTTTTTATGACACAGCTTAATTATGTGAAATAATTTAATCTTAGTCGTACTTTTTTTCATATCTAGTTGAGCAATAAAATAATGTTCTTAAAAATGTTATCCAATATGTCAAAATAATCTCTTTTTGTTTGTTTTGTTCTCTCCAAACGTTTCTTTTTTTATTCAGAAAGAACATACTACCGTTCTAGGCGATTTTACTTAAAAATCCATATTACTTACCAAGTATTGTCAATTCATAACATTCTATGTCAAGATAAATGTAGCTTTTTATTTACATTTATTTCAAATAAGCAGTACAACGTGATAATAAATATTTTGCAAAGGTAAGTTTATAATAATAATTATTATTATAATTTATTTAAATTTTTAGGTAAGTTTATTATGTATCTATTTATTAACAGAAAATTGTTTATCTCAAGGAAAGTACAATTGATAACTTACACTTAGATACTAACTTTAAACCTAAAGCTACTCCTAATCTAAATTAACAAGTGTCAGGCAAAACAAAGCTTAACAATGTAAATAAATTTAAAAAAAATACAGAAAGAAAACAAAAAATCTTATTTACCAGGTCACAACTGAACAGATAGAGCACACACAACACAAAGGAAAGAAAGTTGGAAAGAGAAAGGAAAACTATATTATATAAAAGACACATACGTAAGAATACTCAGAGGAACGAGAGGAAGAGAGACGGTTAATATGGGAGGATATCAATGCTGAGACAATCCTATTACAACGCAGGCTGTCGTTCTGTTTACAAATGCAATACATTGTTTACATTGTATTACAAATACAATACAACACAATACAATACAATGTAACTACAAAACAATACAATGTAACAGATGTTAATGCTGCTAGTTTTATAAGTATGTGGATAAGTAAGCATGTTTATGATGAAGTAATTTGACAATTGAAAACAAAAACAAAGCAAAAAGTAAATGTTTATTTGTATCACATTTCAAACCAAAAATCCGGGTAATAAAAATAAGTAAAATATAAATTTATTGTGTTTTAATCTTTGCATTAAAAATAATACACAACGCTCACATATATGAAATTTCGAATCATATATATTTTCCCATTTTAAGTATATTTTCTTTTTCATTTTAGAACATATGATTCGACTGAACGTATGTAATTTTCACGCCCATCATGTTTAATCCTTCGATGCCATAGACGATCACATTTACGCATGTTTTAACCTATCAACAGTACGTTAAGATTTAGCTACGCTCCCTAGCTTTATCAACCATTCAAATTGGTTCCTAAAATTCGAGAAGTATTGCTTTTCCCTTCCAATCGATAGCGATCGGAAACAAGTAAAATTTTCTAACATCATCATCATAAGCGTGATAGAACGATGGAACGAAGGGTAACGCGTACGCCAAATAACATTTCTTCTCTACCAAATTTCATTTTGACGAACATATGGTCCTGAACTATCGCTACTCATTGCCTGTTTTTCACATTAGAAATCTGCTAGTACTGCTGAATTCAGAAATGCTACATGTGTGCTAGGTTTGATATTTTTAGATGGTCTTCATGCATTAGTGGTGCACTTCGTGTGAAAGTTTTCTGGTGTCCTTTAACGTACGATACAAAATTTATGTCGAAATCAACACAGAGCTGCTAGCATTTAAAAAAGGGATGATAAGCAATTGAATTCATGGAATTGGTTTTTTTATAACCTGTTACCTGCTACTCTTTAAACCTTATGTTTTTTTTATGTGTTCTAATTTGAAAATGTTTATCTTTTTTACTTTTTTATATTTTTCACCTGTGTCTTTATCTTATCCAGCTCATCTTTTTTTAACCTAGCAAATTTGTAGCTGACGAACGATGTAATCCACATTAGCAAAAGTTCTTTATAATTTATTGTATTGAAGGTATAATTTTAAACATCTGTTAATATGTTTAATA'
p10
sS'AGAP004748_192bp'
p11
S'AACGGTCCGTAGAACTATCGGATATTTAGATGACGGTTCGTAGCGCCAAAATTATTGAAATAAATGTAATATTTATGATAATTACTTACCTACCTCACTAGCTATCAAACTGCGGGAGAACAATTCACCAAAGCTTATAAAACATTGCTATTATAGAAGACAATTTCTGAACGGGGCCATCTTTCTTATATA'
p12
sS'AGAP004708_2000bp'
p13
S'CTCGGTTAAACCAAAATGAACTTTAAACGACTGTTAAAAAGAGTTCATTTATTCGCGATGCCGGCTATTATGTACACATAATACTTTTATACGTTTCAAACCTGCATACATATTTAATGTTATAATTGATTGTGAAGCATTACAATCATTTTTGATAGCTATTTTTAAAGTTTTGCACGTAAGTGTAGAAGAAAAGAGACAAACTACGTACCCAAACTTGAAAATGTCCCCAATTGTATTCTATCTACTGTAGCTTTGAAGCCTTTGACAGTCAAGGTACTCACAGCGCTGGTGGGTACCGTGCAACACAGACTGAATCATCTGGCANNNNNNNNNNNNNNNNNNNNTATCTATGAATATAAAGTTTATAACCGAAGTTGAAGAGTTGGAATCTATGATATCGTGTACAGTCTTTCCCCGAGTTACGCGAATAATGCGTTCCGGAGACATTCGCGTAACTCGGATTTCCGCGTAAGTCGAATATTACATGTTACAGCAAAAATATACTTTATTTATCATAGTTTTTGATTGAATTTAGTTCATTTATGTAATTTAATACTTATTCGATGCAATTGGTGTAGACAATTTGGTTATTTATCGGTAAATATTTTTCATTTGACAATTGATGGAGAAAATTGTACTGATTTGACATCTGAACTGTCAAAAATAAAAATTCGCGTAACTCGAATTCGCGTAACTCGAGTGTCGCGTAACTCGGGGAAAGACTGTATTTTATTTGAAATAATGTTGGATAATGTAATAATTATATTTGAAAAGACGTACACAATATAGATATTCAAGATAGAGTAGTTGTGGAATCTTTGGAAATGTGTTTATAACGGCTAGTAGCCTAGAAATTAAAAAAAAACATCAATTTCTTGTCAATGACAACTTTTAACTCTCAAAATCAAAATCTGCGAATCGTCTTAACTCGATGGGGTCGTAACTCGGGGGACGCCTGTACAGTGCAAACACATGCATTATGTACACATAATACTTTTATACGTTTCAAACCTGCATACATATTTAATGTTATAATTGATTGTGAAGCATTACAATCATTTTTGATAGCTATTTTTAAAGTTTTGCACGTAAGTGTAGAAGAAAAGAGACAAACTACGTACCCAAACTTGAAAATGTCCCCAATTGTATTCTATCTACTGTAGCTTTGAAGCCTTTGACAGTCAAGGTACTCACAGCTGGTGGGTACCGTGCAACACAGACTGAATCATCTGGCATGTTCGACTCGAGGTTTGTCTTGTCTGCAAGGTGTTATAAATGACAAGGTGAAGTTGTTCAGAGCAAAATGACATTTCTCGACTTGACATTTCTCTTCCGGGGGCTCCAGTCAAGGTGTTATAAATGACAAGGTGAAGTTGTTCAGAGCAAAATGACATTTCTCGACTTGACATTTCTCTTCCGGGGGCTACGGTATAAAAATCGGGGAGGGCTGGTGTGGGGTAATGGAATTTGTATGCAGAGAGTGACAGATGTCCCCCACAATGTCACCCAGCAAAAGCGATAAAAATCAACCTTCTAAATACATTATCCTTGCTTGTCTGTTTGTTTATGTGTGACAGTGAAGCTCCATATGATTATATGGGTTTGTTCGAGTCGAATGTCGTCTTTGATTGGTGTCAGAGCGCATCCTTACCGTATTAATACACGATGCGCAATCTCAGATTGCGCATATATTCGTTTTATCAAAACATAAGTCATTTCGCGTAGCCAACCCTGAGCTATAAACGTCATTTCCATACATTTTCAGATTGCGCCAAGATTGCGCATAAATTTTCAAGATTATATGTCCGAGATATATATATATTTTTTGACAGATAAATATATCAAACCGACCCGTTTGACAGATAAATATATGCGCAATCTGAGATTGCGCATCGTCTATTGCTACGGTTACGTAGATTTGTTGAGAACGCATAAACCGCGTATCTCGGGAGCAGACTGTAATCTTTATAGCTGTCATTTATAGCCGCTTACTAGAC'
p14
sS'AGAP004724_1182bp'
p15
S'AATAATTTAATGTCATCCAAAAATAATACATTCGTTTTGTATTTCATTACAGGAAAACGACTACTCGAACATACGTACTGAAGTGCATGAATTAGTAAATGAACACAATACTCTTTTAATTTTGTAAATTTAAATTCGACAGTGTTTCTTTCCGGAGGACTCAAACAAACAACCCCAAAATCATGATTAAATCAATATCAAATATTATTCTTCTTCTTCTTTGGCTCAACAACCGTTGTCGGTCAAGGCCTGTCTGTACCACTTGTGGGCTTGGCTTTCAGTGACTTATTGATTTGCCCCCATGGCAGGATAATCAGTCCTACGTATGGCGGCACAGTCCATTTGGGGATTGAACCCATGACGGGCATGTTGTTAAGTCGTGCGAGTTGACGACTGTACCACGAGACCCGCTAAAAAATATTATTTTTTATATTATACACGACATATTATTACAATTGTATCAATCCCTGTTCAAAATAAATATTTACTTACAATTATTGCTCGATGGTAAATATAGTTGAAAGTTCTTGTGTATTGTAAGGTTAACAGAAAACTAATTTCATATTGTTAGATGAAAGCATGCAGCCAACCGCTAACATGATTTCTCTGCAGTAACCGATCAAATAGACACAGAGCGAAAACGTCGCGCGAGGCTTCTCGCGCGGCAAAAAGTAGCTCAATTTTGCAAACAGAGCTACTCGTCTCGCGCGACATTTCTGCTTCATCCGAAATAATCGAGTTATTAAGTTTTGTTACGAGCCAGATTAATGCCAAAAGTAAAAATAGATTTGAACACATTTGAACTCATTTTTTTTATGTTTTTAAACAAAAAGCATGAAGGTTGACTGTGCCAAATGAGCTACTTTGATCTACGCGGAGATAAATTTTTAGCTATTTTTTATCGCGCGCGACGTTTTCGCTCTATGTCTATTTGAACGGTAACCGGTAACCGTTCATACCTTTCAAAACTAAGCTCCTGGATACCCGCAAGTGACGGAAAACCCATCCATCGAACCCATCCTCAACTCCATAAAATTTTGACAGGAGTTCGATGGGTTCACTACTGGCGATTGCCATGTGTAAACAGGGGGTAAGAGATCGAACGCGCGAACTGTCCAGTTCGTCTGGTGTAAAAGCGCATTACCGAAATGCGATGTTTTTTCGGAACTCTGACAGTTAATG'
p16
sS'AGAP004752_62bp'
p17
S'CACCAGTCTGTATCGTTGTTATTTGTTATTAGAAAATTATAGTTACACATTTAATTGCTTTC'
p18
sS'AGAP004766_2000bp'
p19
S'AATGATATTGACATTAAAATATATACAACCAAAGATATTTACCCTCGATGCGCGCGAAGAAATAGAGTCTATATTAACGATAACCACCAGTTGTTGTAACGACGATGGCTCGCTGTGTCTTGCAAAGATGCGCCATCAGTAAACAGAGCGGCAGCAGTAGCAGCAGCAGCAACAGCAGCAGCAGCAGCAACAGCAGCTGTAGTCAGTGAGTGCCCTTCTTCTACATTGTGGCGGGCATAGATGGCGATAGATGTGATGGGAATTATAACAGAACTATAAATATATACATATACATATAGACATGCATACAAAATACATGTATTTACAATAAAAAGCTCTACATGTCCAAACGCTTACAACACAGAGATCACTGAATGAATTGGCAAAAAATGAGGGGGCGGGAAGGTGGTGGTAGTAGGGGCAGAAATAGGTAGGGTTATCAATTCATATTCGAGATATGCACATGACGCCATGCGTGTTTCAAAGGACTACTAACACTAAGACTTTTTGCCCTCATATCTTACAGCTTGATAAGCTTCATCATCGTTGTTGAACGTGTTTATTGTGTCAGTTTCCATCTTTTGGTTTGGTGCGATTCCTTAAGGAATCGGCGAACGCCACGACAGAGGTGTTTGTTGGGTAGAGTAAGGGATGAAACACTGATGCCGCCACACAGTGAATGCTAAAGCAACAGTCGTCATCCATTGCACTACTTTTTTCCAATTGCTACTCAAAGCGTAATGTATTTGTGTTTCTGACTGTCGGTCGGACACAGCTGTGAAAAACTACGCGGCAAATGTTATGACTTCTGTAGGGCGCGCATATTCATGGTTTAGTAGCATTAGGATGTGAAGAAATAATCATGCAACACGAACAACGCAAAACAAAACAAACAAAAAAGCGAGTAAAGACAAACAAGCATACAAACTCAATAGTAGCATCTCTATTCGTATGCAAAACTTCCGTTCCGTTGCCAACGAATGTGAATGAAGGATGACATAAAATGAACAGGAAACAATCTGTGCGCAATTACGTCGAACTGAGGGCACAGCGGAGCAAAAGATGAATTAGAAAAGAAGAACAAATAAATGAAGAGGAAACTAAATGTACGATTTCACCTTACGTAGAGGTGCGTAGCAGAATTGACACTTTTCCAGGGAGATTCAAACTCAAGCACCTTTCAATTACAAATCAACTCAAACAACTGACACACAATAGCGGATTAAATTTACGTAAATTTTGAAGAAGTAGCTTCACGGCTCCCAAAAAATGCACACACTCCAAAGTAGGTCCATGGATCAAATAAGCAAAGCGTCAATCGAATCAATATGCAATCGTTTGTTTGATGCATGTGTTTAGTTACTGTTACTGATCTTGTAAAAGCTAGCAGATTCACTTAAAAGTACCATGCATGGAGAGTATTATATAGTATTTTGCTTTACGGTGCGATTGTTATACTGTATTTGTTTTCTTACTACTCTTATTACTGTTTTTGTTTGGAGTTTGTTGCGATAAATCTAACATTAAGTGCAAGTAAATGCTATATTTGTATGTATAGTTTAGTGTAGTGCGCCACACCTACCTACACCAATTGTAACATCTCGTAGAGTCGATTGAAAAAGGCACGAAAGCTTAGGAGATGAAGTGAAGAAGAAGAAGAAAAAACATTCAAACAATACAACAAAACCTACTTTGAAATATCATCTTAAAGGACAATACATAGTTGTTAAAGTAAAATATAAAGAAAATGTGACGGAAGAAAATTATGCAAATGGATGGTGATGGATAACAACTACAATCTTTAAGGTTTACGACTTTAAGTGGAATTAATGTAGCAATTAAAAACAAAAAAAAAGCACACAGACAGACACAAAACAGCGCGTAGTAAATAGAGCGGTGGTGAGTGTTGTAGTCGGAAGGTGAACGGTGGCATGGGTTGAAGCGAATTCTAATGTTATTAACATCAGTAGAAGAGAAGTAGGTTGAAATAATCAAAAACA'
p20
sS'AGAP004718_443bp'
p21
S'AAGCATCAAAAATAGCATAAGCATTAAAAAAACACATATATTTTTCTGTTTGCCATTAGGAACAAGTCATCTATAAAATAAGGTCACTTAAAAAGTGTGTTAGAGGATGTTTTCGTTGTGCGAAAGCAGTACCGGTACCAATGGAAGAGCCTGAAAGCTAGAAACATGAGATCGATTCTCATCAACTCTCGATGCATTAAATATTATTCAAGCTATCAAAGACATAATGTACGTTGGTATAATAATGCTAAAAGAAGACACAGTTGAAAAACCTGCCCCATGTGTAATGTTATGACTATGAAGTTACGAATAATTTATACATTCCGATTCCTGCGAAAAAACTAAATAAATGTGTAGCCGTATATGTACCATTATGACAAATTTTATTATAAGCTTTATTTGATTATTGAGTTGCAGAAGATGTTGAGATGCTGATTCACACT'
p22
sS'AGAP004698_2000bp'
p23
S'CGGCTTGACGTTTCTCTTCCGGGGGCTCCGGTATAAAAATCGGGGAGGGCTGGTGCGGGGTAAAGAAATTTGTATGCAGAAAGTGACAGATGTCCCCCACAATGTCGCCCAGCAAAAGCGATAAAAATCAACCTTCTAAATACCCGACAAACAATGCGAGGGTTGGTGAGGTACCTCTCACTCTAATTTCTCTAGTCTAGTCTAGTTGCCTCGCTTCCTCCTATAGCGATTCTGTCGAGCTGAGCTTTCACGTCCCTCACCACCGATCTCCTTCCTACCCCTCGCCTAAGATCGTCTGACGTCTCGCCTGACTGCTTTCGTTGTGTTGCAAGGTGTTATAAATGACAAGGTGAAGTTGTTCAGAGCAAAATGACATTTCTCGGCTTGACATTTCTCTTCCGGGGGCTCCGGTATAAAAATCGGGGAGGGCTGGTGCGGGGTAAAGAAATTTGTATGCAGAAAGTGACAGATGTCCCCCACAATGTCGCCCAGCAAAAGCGATAAAAATCAACCTTCTAAATACATTATCCTTGCTTGACATACAGCTGTCTCGCTCATATGACATTTCCAAGGCTCGCAAGCTCTTTAATGCGAGGGCTCTGGAGCAGTGAACTTGTATGGCGTGCGAGCCCTCGCGCGCCCTCGCAAATCGCTGTCACTTGCACTGCGGGATAGAAAGGAGGTGTCGTCATACAGAACAATTGGGCATCGAGGCTTTCAAAGTGGGTATAGGGACTTAACAGTTTTGAACACACCGCCGACGTCTTCTTCTGGAAATCTGGAAGGCTGGAAATAGACGAACCGAGATCGTCGCTGTACCGCGAAATTCGCGCCTTGTTTATAACCGTATTAATACACGATGCGCAATCTCAGATTGCGCATATACAGCAATTATCCGCAGTACGCGATACTCGATATACGCGAATTCGCAGTACGCGATTCCTCTAAATTTGACAGCTCCATGTGTTTTTTGCAAATATTTTAATTCTTTGAAATATTTTATCCTCTTTTTGAATTTCCTTAGTACTCTTAATGCATTTTGCATTAAATTTGTTCAAAAGATACCTGTTTTAGATACCTGGTTATTTAGAATAGGAACCGTTCGCTTTGTTCTTAGCAACACATACGTAGTACACATTGGTGTCCTCATCGACGGCATTATTTTGATCCAAAAATGGATTTTAATTAGTTCAGATTTGGTTTAGCTTACAATAAGAAATATTTTGTGTGCATTTTAAGATATTTCAGTGTAAATAATGAAGATTCCAAGATTTTTTGTATATTCGGCAAGTTCGCAGAAAGCTTGTTTGGGGAAATGTTTTTACCCATGCTGTCAAAAAGTGACGTTCAACTTTTGCTATAAAAAACAGGCTATGAGACCACCTGATCTTCATACACTTTGGTTTCTACATACACCGAGAATGCAGCTGAGAAAATAACTGACAGCATACTTTGACAGCGACTGACAGCATTTTCGGTGAGAGAATTCTCCTCGGCATGCAAAGAACGATGGAGCTGAGAAAAAATTGAATTGGCAGTTTATAGCGATCAATTATCAATTATAGTTTGCATTTTTGCCGTCTAATAATTGTAGATATATTATTAAAAAGTAAAAGAAACTTTTTTGGCTTCATTTTAACGATTAAAATGGATTTTTTCAACATCATTTTAAAAGTCTCATCTCGGCGCTTTTCAGAGCTTCTACACACACCAGCGTGAGAAACCGGTTGTCAATTCTCTCACAGCCATCTCTCAGCTGCATTCTCGGTGTATGTAGAAACGCTCCCATACAAAAATTTGACAGGCCGTCCATTGCTGCCGTCCGATAAAATGGCATGCGAAAAAGCGTTGCCACCGCCCTAACTGCTCGTTTTTGTTTGCGGGTTATCCATTAAAAAATCGCTTGGGTTGCTTGCTTCCGGCTTCCCCTGAGCTATTATGTGTCTATATGTATAAACCTTGTCGTATCATACGTCAATTAGTTATCAAATTGCAGAAAT'
p24
sS'AGAP004739_2000bp'
p25
S'ACCGGTACTAACTTTGATTTTTTACGCATTAACGTCTTGTTGCATGATGCGGGACTATAGAACTTTGGTTCTATATACTCGTTCATTAATACAGAGCTCACTTAGATGATCCTTACTACTATGTTTTACGGTACCCCGTAAACAAATTGTTCATGAACTATCAACCACTACCACCTATCTACCTTTAGTTGCAAACAATCTATGAATAATTTAGGAACTGACTCATGGGAAGATAATTTGCGAATCTTTTCCGAAGTTCCTATTATTAAATGTTTTTCGAAAGAGCTATATGTCTATACGCTTGAATGGAAAGTATAAGCAACTATGTGTATAGGAGTTTTCACATAGCAATAGGCGCGTGTTATACAGAATTAGAATTTAAATTTAAGAAATAAAAAAAAATGAAATGTATTGAAATTGTTGTATTGCATAGCTTTCACTATTGTAAACAAGATTGAGATATTGTCTATTTTGCTAACCGGTTTGCTGATGACAGCTTGTGGTTTCTATAAGCCCTGAAGCATACTGAAACTACAGAATCGGAATTGGTGGAACTCTTGGAGCTATCCATAGAAGGCTCCGGCTGCTGACTAGCGGTTCCTGATGGCCTGATAGTAGTTCATACAATTCTGATAGTAGTTCATACAATAAAATCAAATCCAATGTTATGCTTTTACATGGTTGGAACTATGTTGTATCAGCGACCGATACTGCCTGATGGATTCCAGATTGACTGATAACATTTTCGTTTGTGTATTAACAATTTTAATAGAATTAACATGGGGCAATATTTCACCTTCAACGGAACCCTATCGCTCCTATCGCTCACGGGTAGTGATGGGTAATCCGGAGCGGAGTCATGGATCAACTCCGACTCCGGTGCGCAAAATATGACTCCGGCTCCGGATCATAACTGGATTCGACTCCGGATCAGTCCGGATCACTCCGGATTACTCCGGATCACTCCGGATTACTCCGGATCACTCCGGATTACTCCGGATNNNNNNNNNNNNNNNNNNNNTGCTACACAATGTCATTCATGTCAATACTGTCATCATGTCGTGTGTTAGCTTCCACACGTGCGAGAATATATATATATATATTCGTTTTTTTTATTGCGCTATCATACAATGATGTCTCTATTGAACCGTAAGCTCGGAGCCGTTGGTCTGGAGCCATTGATTCGTCCCCGGTCCAGAACGGTGGGCCCGAAACTGGCTCCGTAGCCGTTGGAACGGAGCCGTGAGTGCAGAGCCGTTAGTCCGGAGCCGGCTACGGAGCCGTTGGTGCGGAGCCGGCTCCGGAGCCGTTGGAGCAGAACCGGTTTAATGGTCCAGTTTAATGGTCCAATCGTTTTGTTCTTTGGCATTTGTTCCATGCAATCCTTTCCATCAGTAATCCGAGTGACTTGGGGGTCTGTATTGTTCCAGTTCTCTAGTAAATCATTGCAAGAACATCGTTCAAGCGATAATCTTCTGTCGTCTTCAAAGCAGTAAAATTTATGTTATCGTAGGTGAGGAGAGGAGGGGATGGAGGCTAAGATGCAAACCCATACCGATCTTGGTACCAATCACGGGATGAATGATGCGGGAACTGAACTTGGACTCATACTTGCCGTGGAGTTTATTGTGAACCCGTATTGGACCTGGAATCAATAACGAATCCATACTAGTACTGATTTGCATCCATATTGATCATACAATTGATCATGAAACCTTTCCATTCCTTCAAGTGACCCTGAACGAAGCTGCCCTTGGAACTGATGTTTTGTTTATTTTTTAATTATTTTTAAAAACTTTTTTATCTATCTTTTTTAAAATTGTTTATGTTCCTAGAACTGATCAAGAACCCCTATCGGTCTTGGAACCGATGATGATCCCATACCCATATCCGGATTAGAAACTGAACTTATATGGATCCTGGAACCGATCACTAAAGTAATATCGATCTTGGAACTGAAACCAAACTGCTCCTGGATCAGTTTGGGTTCTGGAACTAAA'
p26
sS'AGAP004715_2000bp'
p27
S'GTGTAAGATTTTACATATACGGCAAAAACTATGTTTTTACTATGTTTACATATACGGTAAAAACTATGTTGCTATTCTGTAATGTTATTTATCGTCTACGTCTATGGATCGTACTAAATATTCCTTAATCTTTTTCTGTTATTTTTTTAATTTGACAAATTTTCGATTTTATTATCATATGCCGAAATGAATTCCTAGCGAATTAACTAATTGTTCAGTGAGTTTTTGTTTTCTTACTTCTATTTTGGACCTTGTACACTACAGCGAGTTTCCTTAGACTGTTTTCCCAGTTAAAGCTCGGCCATAACAATAATAATAATAGTTAATTATTATGATTTTTTAAATAGAAAATGTAATTGTTATTATTCCTTAACCAAGCTTCAATAAAAGAAAGCTTAAAAAGTTTTCTATAATCTGTTAGTATTTTCTTATAAAAACCAGATGTAAACGTTCGTATTAGCTAAAGTCAACGGAAAATTGGCTCTCAACACCGTTATATGCAAAGTAATGCGGCCTCGCGAACTGAAAAGCTTAGAGACCCCTGCATTAGTGGAATGGTTGGTTAAGGAAAACATAATTTGAATGTCCGAGTTACTCTATTTTCGGTGGTGTGATCTATTTCGGTGTGTGTCTGTTGTAGAAAAATATATGTTGGAGTTCTTCTTGCCAAATTATTAGTACAGAAATATCTTTTACTGAGAAAACTACTATCTAAAACTCAAAATCGATTCAAAGACCCAATCTGCATCAAAGCGTTAAACTACGGTATTATCCGTCCGGTACTCGAATACGCCTGTGTTGTCTGGAAGCCCTCAAAGACTTTATGAGAAAATGGAATCGATACAGTGTCGCTTATACCGATACGCAACACACTTGTTACCTTGGCCACCTGGCAGTCAGTTACCACCTTATGAAACGCGACTTCTGCTCTTCGGACTGCAACAGCTCCACATCAGACGCCGTACCGCGCAACAACTGTTTGTGGCTGGTTTACTGCAAAGTACCATCGACTGTCCATCCCTGCCAGCAGTTAAACTTTTACGCGTCTGCTGTTCAGCTTCATTCTCATCCGTTACTTGCCCTGAACCGTAGTCAAACTGGATATGGATCTAGAGACCCCTTCAACTCCATGATTAGGGTGTTTAACGAAGTTCGTCATTTGTGTGATTTTGAAATCTCAGTGTGATGCTTTAAAAACCGCCTTCGAAACGAGTTATTGAGTTGATCTTTCTACTTATTTTAAACTAACAGGTTGGCTGATAAGTCCCCGGTCTGACACATAGATGGCGCCGCTAGAATTAGATGCATATTATTTTTATATAGTGCCAACCTTCAAATGATTCGTGTCAAAATTTGACGTCTGTATGTCAATTAGTTTGAGAGCCAGAGCGTCTTTTGTCAAGCAACTTTTGTTATTTTGTTGTTCCACCAAGACAACGCACCGTGCCACAAGTCATTGAGAACGATGGCAAAAATTCATGAATTTGGCTTCGAATTGCTTCCCCACCCACCGTATTCTCCAGATCTGGCCCCCGGCGACTTTTTCTTGTTCTCAGACCTCAAAAGGATGCTCGCAGGGAAAAAATTTGGCTGCAATGAAGTCGTGGTCCCCGAAACTGAGGCCTATTTTGAGGCAAAACCGAAGGAGTACTACCAAAGGAGTTTTTCTTTGTTAGACCGGGGACTTATCAGCCAACCTGTTAAGATTAGACTTAAGAACATTCACACGGATCGCTGTTATCCATTGAACGAGAATTAAACAATTAAACAATTAAACAATTAAAAAATAATGAATTAACTAAAAATAATCAACAAACCAATACTGACTATTAGCAACAAAAGACAGAAAATGTTTAATATTCTCGTGTATCTGTACAAGAATATGAGTGTTTTAATCACAACACTGTCCTATTTCCGGCTTTGAAGGGACAGTTTGCCAACTTTCGTTCTAGACGATAAACCCTTTTTTTATTCATGCTATAGGAACACTGATGGACCTT'
p28
sS'AGAP004701_2000bp'
p29
S'TCGAAACAGAGTGTTTTAGTTTTCAATGAATATAACGACTATTATCAACGATCAAGAAGTGAATCAGATCGGGACATTTTATGCGAATATCGAACAATGCATGTTGGTAATATTAGGGATTCATTAGATTAATTTGATGTCACTGATAAATTACGTAACGCAAAGAAAAATTGGCGACTTCGCTACAAGTTTAATAGAATTTAACATTGGAAGCTACCCTTCTGAATAAATTGTGTAATGGTTTTGGGTGTAACTTCTTCTTGATGACTGTTCTTTGCCTTTATGTTGTTTTATGAAAGTGGCTTGCAAGGCCTCTTTCTCAACCTCCAGTTTCGTCGTAGGGCCTACGCTCTCTGGCTTTGTAGAGGCCAAGCGAGCCAAGACGAGAGAAACTAGCGCAGCCCTTCGGTAAAGGGCATTCGTTCGGATGCAGCGGGACATACAAGGGGGGATTCGTTAAGAACAAACAGACGCTCCCAAGTTGAGTCATAAACATCAATCGTCTACCCCTCTCTCAATTTAGTCATGCAACCCATCCGTACATGGGGTTAAGTTCCCCCTTATACCCAAGCCTGGATAACTGAGAGAAATGTTACCGTTCGAGGGACAATACGACGGAGACGTATTGAGTAGGCGTAGGAGTAGGAGTAGGAGTAGGGAATGGGGCGGCCCCATGGGACAGTCGTAAACTCGAACGACTCAATAACATGCCCGTCATGGGTTGAAGCCCAGAATGGACCGTCCCCCCGTAGCAAGGATTGACTATCGGGCTACGTGGTAATGAATTAAGTCTTGAAAGAATAAGCCAGCTTGTCAGCGCAGGACGTTACGCCAAATAGAAGTAGAAGAAGGGAAGGGAGAGCCTATTCTAAAGGTTTCAAATCCACCACTGTGTAGTATCATCCCTTCAAAAAATTCCACAAAAATTTAAACAGCGATCTTTTCGACAAATAACACAGCAAAACAATAATTAATGAATACAAAATAAATATTTTAAAATATTTTTAAAATATCTTAAGGTTTCGAGCAGATGATACCACTTGCAACCCTCGCAATGTTTGACGGGTACACTACTGTATAGACAGGTAGTTTTTATTTTGCTTTTTTAAAATAAAAAAAGCTAAACTTTTGCTGAAACCAAGCAAACTACTTGATTATAAACTGTATGTCAATCATAATCGTGTAAAATATTACAAGTTAATGTTTTTTTGCAAAGAAAATTGCATATAAAAAGTTAACCCCTGGCTATCATATATGATAGTCTTGCACCCCTATGAAACATTATGGCTTAATTAGACGGAGGATACTTGCATACTGTCATTCGATTTTGGAATCTATCCTTCAAATAGGATTTGACGGATACATGCCAGTCGGAAAATCGGAATTCGGCATGTTCATTACCGATTTGCTCCCGAATAGGTTTTTTTCTGTCACTGTCGATAGAGCGAATTGAATTTACTGCTGATGATTGATAATAACAACACAAATGACAAACAACGAAGGATTGTTTCGGATAAAGCTAAGAAAATCAATAAAATAAATAATAAATGTGAAAGGTGACGGATAAATTCTCTTGCCTTATTACACGTACGTGAGGTAATTTTGTGCCAGAGTCTAAGTTTGACAGATAAATGCCAATCGAGAAATGACAGTTTTTTCCTCCGTCTCATAAGAACTTATCTGGCTATCATATGTGATTGCTATGGCACTCAAAGTGTTAACATGTTGCACTCGAAGAATAACAATGCTTACATTCGAAAGTGACTTGGAAAACCCTATAAGAGGAATATTCACAAATTGGAAAAAATAATGAACTGTAGACTGAAAATTAACGAAACCCTTAGGATTGAAGTTTTTTAATGAATTATGTTGCTATTTTAAACATGTTATTTGTTTACTTTGCTCATCAGCTGTTTGCTGTAATGCGTTATCTGACGGATTTTCGTCTGTAAAATACCTCATTCACTGTATATTTCACCTCTTCTGGCCGCACGATCAAA'
p30
sS'AGAP004738_1457bp'
p31
S'CAAGAACATTTGACGTACAGGGATTTGAGGTTAAATCGTGCCATAAAAACACAAGATGCTTATAGGCCTTATCTGAAAATATAATATGTTGAGGGTGCAAGGCCACGGTAGCAACGAAATGCTGAAAAATGTGTCAACTTTATCAAAACTGCTTGTCAACAGCTAAAAAAAATCTTTCCTCGTGACCGCATTGAAAATAGTGTAACTGTACCAGTTTTCGGCAGCGTACCTTTTTTCAGCAGGGTAGCTAAACACGTGAAATTCTGCACAAATGCGTTAAAATTTTTCACAAAACACAATTTTGTAGCGAACGTGTACTCATTTGTTATTCACATACGAAGTTTCTCACCAATTCATTGAGTATTTTTCAAAATATCAAATAAATTGTACATTTTTCGGCAGATTTGCTGTCAGCTAATAGTTCGGCAGGTTTTGTGATTAAGAGAACCAGAACAGTAAAACAATGAAAAAGTGGTGTATATTAAAGATTTTATGCTTATTTAATATATTCTAACTTATTCGGAATTTTAAAATCACGATAAAGTTATATAAGTTATTTTTCACTTTAAATGTTGCCGAAAATAGGTACACAGTAAGTGTTCATTTTTGACAGCTCAATGTTGTGGGCTCCTGCCGAAACTCGGAACAATAACACACCTTAGATTTGGATGAATATTCCTTTAAAACTTGATCAGAACACTATAATGCGTATGTCGACTCATAACAAGACCTTTCTTGTATCAAATATCATCAATATCACGATAAATAATGCAATAACTTAACAGAAAAATAATAATTTGTGAGCCAGTCGGTGCCGTACGGTACAACCGTCAAGCTGTCACTTTCTTCAATGGCTGCTTTGTTTATATGTCACAACAAAAAAAAAATCAAAACGGACCATAAACAACATAAAATTAATAATTAAAGTGCTTTTTAACACCTATCTAAGGAAAGTAATGTTTGTATTTTCATGAATAATTGTTGAAAAAAGGGCTTTGAAATGGCAAATAATAACATAATATATGACGATAGTTTATCAACCATCATCACTTTCATGAAAAATATAAAAATGTGTATGCATGAGCAGTTTTTGTGAGACTGCTGCACCTGCCTGCCGAAAACTGATTCAGTTACGCTATGTCCAAGAAATGTGCCGCAGATTCAGCATTTCATCCAATGAATTCAGGTATCATCAACGTTTTCAGGCATCATACTGTATTCTTGGCATTCTTCAAAAACGATTCGGGGAAGTGTCTCACAGACTTGAGATAAATGTGTGGAATCTTGTATTGAGATTGATATTTTACAGCTTCACTATCCGCTATAACAGCGCATATCGGGGACTATTGGTATTTTGAAAAAAAAAATGACAAGATGAATTGTCCTCATTTATGACCGGTATAGACCCATTGTGAAGAAAATATGTTCTAATGTCGATTGTTTATTTTCTTTCATTG'
p32
sS'AGAP004747_267bp'
p33
S'TAATCATTTGTTGTTTCGTCAACTCTTTTACACAAAATTGGCTTCGCATACCGAAACCTCTGCATCTACGATACTGTGATCAAAATCTTTTCCAAGCGGGTAGGTAAAAGCCGAAATTTCAAAAGCATACATTTTAGAATCTTGCGTTTTGTGTATTGCATAAAATGAGAAAAGGCGGATGGAAAAAATGTGCGTTTTTGACAGTTGCTTGTTTTTGTCATGTCACGTCTGTGACTCACGCACATTGCTGGTTCATTCTGCTAGTGC'
p34
sS'AGAP004743_633bp'
p35
S'AAAAAATATCTCGAATTAATACTTAATTTTGTTCTAATAAACCCGCCCTACATGCCTCCGAAATGAATGTCCTCCTCAATACATGGCACTGCATATGCGCTTGAACCAGGCGAAACTAAAGTTCCAAGTACTTGCAGTCGAGTTTATCCAAGTACTTGATGTTAATATTCCAAATGATAGCTTCAAATATCACTCTAAAAAGAATGTATACGTACACCTTTTTTTAGCTCATTTTGATTGTATTTGTTCACGCTTTATACTAGGAAATTGAGTTAAAGAAGGCTGTTAGAGAAAGGCGTAAACATCTGAACTCTATTTCTCTATTACCATGGTATTAAAAAAACGAATTACCATGCTCATAAATACAACGGAGTCTACTGTTAAGCCAAGGTTTATACAAGGCTGATGTATAGCTAGGCATTTTCGCATTTGGCGTACATAAATATGTCGCATATCCGTTTGCTGATTGTACACGATCGTCAATGTTTATATTTTCGCATTTATTAGCTGACATATCTAACTATTTTGGATGATACCAAAAACAAATGTTCAATCACTTGTCACACCTACGCTTCCGAATCGGTAGGTTGCTGTCAAACTCTTCATTCATTTTTTTTCAACGAATGTGCTGTC'
p36
sS'AGAP004722_2000bp'
p37
S'TATCGAAAAAATGAGATATATTAACAAAAGATTTGATGATTTGTTTATGCATGAAATTTAAGATCATGTGAGTATCCCAAGTGCCACAAATCCACTAAACGACCACTAAACGGCTTCTAAACGACTCAAGTTCGCTACCTAAACGGAATATAGAAAGACTTCGTTTAGCAGACGGCAAACGACTCGTGCATTCTAAAAATAGCAAAAAAGCTGATGGCGCTATCTGTTGGTGGGATACCCCAACCAGTTGAGCTTTATCGCTTGGAGGAGAGCTTTCTCATTTCCTCTGTACTGTTTTATGGTTCCGCATTGAAGTTATGCATCGCTAGAACTAGAACGGCGATACGCTTGTTTAAATACTAAACTCCAACCGAAACCACCAGTACTGAAGCAAGTGAGATTTGAGTAATGGTCGTTGGTGTTGATACCCACGTATCTGACCACACGACCATTCATATAGATTTTTGCTCGGAAAGTCAGAAGGCTATATAGGTCATGATAAGATGAAACTTGTCGAAACACATTGCAAGAAAAGGATAGCAATATAATGATGAGTTGTAATACGCCATCTATTGATCAAACCAACGAAGCTGTGGAGCTTTCATTTTTTTTCTATGGATATTCAATTTTCCAGTCGTTTAAGCTTAATCTGTGGCGCTTGGGATCTCACACAAATTGTCCATACGGCTCGTAAAGAATGAGGAATCAATGTGAAAATTGAAAAAAATAATGACATCTTAATTTTTATCATCAAAATAACACATTTTAATCCATGTTCTTATGTTATATAAGAACTCGTAAAGTCCAAAATATATTTTTAAATAATATTTAATCGAAAAGTAGATATATTATATGAACAAATTTAATCCTTTTGAATAGTTTTTGAATGAATAGTTTGAATCCTTGGGACCTTACGTCAAGTGACGAATTGTCAAAATGCACTAGAGTCCACCACCTGATATTTTTAAATCCACCTAGGGGGTCGCCATAGTTGAGGGACTTTGCGTCACTTTAAAACCGTCAACTAATGATTTCCGCACACAAAGCATAGCAAATAGAAAATATTTCTTTGTTACTACGTGCATTTTTGTGTGTCTATGGATGTTATTGAAAGAGTGAGATACAGTGGAGCGCCGTTTATTCGGGCTTCTCGGGACTTAGCTTTGCCCGGATAAGCGAATAACACGGATAATGAGTCAAATGATTTATTTTATCACCAATTCCTGGTTATTTTTTTTTAAATTTTTCTTATTTTTTGATAAAAACAACCCAGTTTTTATTAACTTCATGTTTTTCGAAAGAGAATTTTTAAATTTGCTATGAATTATAGTGTTTTTTGTTATGACAATGTGCTCTTATAACCGCTATTTCAAATATCCTCCTCATAACCCAATGTCACTTTTGTATTGAACTGTCATTTCTCAACAGCACGGATAAACGGAAAGCCGGATAAAAGATACCCGGATAAACGGAACTCCACTGTATATTAACAAAAGATTTGATGATTTGTTTAGGCATGAAGTGTAAAATCATGTGAGTAAGAATTCTTATCGCACATAAATCATACATGCGGCTCGTAAATAAGGAGGAATAAATGTTAAAATTGAAAAACTAAATGACTTCTTAGTTTTTATCCTCAAAAATCTTGAAAACACAAAGAATTATAGAATAAATTCACGGAATAACATGAAATAAATCTTAAATCTACACTTAAATCTATGTTTTAATGTTTAATATGAACTCTCAAAACCTAAAATATATTTTAAAAGAATATTTAATAGAAAAAATAGGGTAGATAAATTATATGAACAAATTAAATAAATCTTAACAAAGTTTGAAACTTGGGGACCTTACGTCAAGTGACGAATTGTCAAAATGCTCTAGATTCCACCACCTGATATTTTTAATCCACCTTGGTAATGTTATATATCAAGTCTGATTTCTTGCTTGATTGCTGCCAGAGCGCTGCCCTAACCGATGTTTGTATTAGTGTAGGGAAA'
p38
sS'AGAP004690_2000bp'
p39
S'TGCTTATCATTTGATCGATTACTATCGTTTCGTTGTCTATAAAAGTAGCTGTTTTGCTGTGTTCCGTGCTGAGACGTGTTTAAAACGTATAGTAAGTTCAATATTATCATTCAATGATTCGTTTAGTTCACCAAAAATGTTAATAATCAACAGGAAATGGGACGAGGTAAACATTGCTTTGATGAGATAAGAGATTTGATAAAAAGAATGAGAGCAAAGGGTAAAGATATATAACATATATAGAAATTCAGGATACGTTACAATGTTCAGCAAAAATGATAAGTAATGCTTTAAAATGGGAAGCAAAACCTGAGACAAGAGGAAGACATCGAAAAACTACGAATAGAGACGATAGAAACATCGCGAAACTTGCTAAAAAAAATCCGTTTACGACATCTAAAAAAAATAAAAATGACCTTGAGCTACCGGTAAGCTCTGTGACTATTAGGAGACGTTTGATAGAAGCTAACTTGCTAGGCCGAAGCCCTCGGAGAGTACCGTTATTAACAAAACGAAACGTTTCAAATCGACTGAAATTTGCAAAGCTTCGTGTTGCTTGGCCCAAGGAGAAATGGCTTAACATTTTGTGGACTGATGAGTCTAAAATAGTTTTATTTGGCACAAAAGGACGTCGAGAGTATGTAAGACGTCCACCAAAGGTTGCCTGTCGCACCCAGTATACTGTAAAAACAGTTAAACACAGAGGAGCAAAACTCATGGTGTGGGGATGTTTTTCGTACAATGGTGTTGGTCCAATTTATCGCATACCGGGTATAATGGATCAACATGGATACATAGCAATTTTAAAAGAAGTGATGCTGCCTTTTGCAGGTAATGAAATGGCACCAGATTGGGTATTTCAACAAGACAATGACCCTAAGCATACTAGCAAACGAGCTAAGTCTTGGTTTATAGCGAATAACATCGATGTTATGGAGTGGCCAGCGCAGTCTCCAGACCTCAACCCTATTGAGCATTTATGGAAGGACATAAAATACGCGGTTTCTGAAGCTAACCCTAGAAATTTGGAAGATTTATGGAAAGTAGTTCTGGACTCATGGAAAGCTATACCTGATTCCCGTTGCCAGGCATTAGTTGATTCGATGCCGGCAAGGTGTGCTGCTGTTATTAAAAATAAAGGAAATGCGTCAGGATACTAATGGTTAAACATGCAAAAAGGAACAAAATGTAATGAATTAACACGAAAAAAAATATGGAGAACAATTCAAATTAAAAAAAAAGTATAATTCTAATAATTTTTTTCAATACTGCTATTATTTTGACCACAGCCTTTTGAAGCTTTATTGAAATAACTTGAAATTAAAAATAAAGTAAAATAAAAAGGGATGCAATTAAGTTAGATTGTATGTTACTGGTATTTAAAAAAAATAATAAAGAGAATATATGAAATTTATCTTACTGCTAACAAGTATTTTAATTATATTTAAAACGAACTGCTATTTATATATATATATATATATATATAATAATATATATATATATAATATATATATATATATATATATATATATATATATATATATATATATATATATATATATATATATATATATATATATATATATATATATATATATATATATATATATATATATATATATATATATATTTATTTATTTAACATTTGTGCATTTTATGCATTTTATTTTATTTATGCATTTTTTATTTTACATTTATGCGTTATATACATCATCTTCAACAAGTTTGCCATGCATGCAGTCATGCAGCTCTCTTGTGATTGTGATAGTGATTATGGTGCTTTATGAATCTAGTTTAACATCGTACTACTTCGTCCACCCTTTCCCAACGCAATGCAAGTGAGAGTGACCTGTGGGTGCGTGTGACCTGCAAGATTGAAGTACACGATGAAAAAAAACACCAACAAAGCAAAGCAATTCACTACTGACATGCTTTTTGCGGGTTCCATTGGGTACTATAAAAGCGATATGCAGTCTCTTTATGGATTATCAGTTTGCTAA'
p40
sS'AGAP004750_302bp'
p41
S'TTTAGACGGGCTCACGCACTCTTACCGTACAAAACAACAAAGTGTAAACAGTAAACAATAAACATACACACATACTGTCTAATCAAAGCCAGCTCTGTCAAATCCGCATACTTTCTCCCAGAAATGTTGACCTTTCGCTAGTGATTGAGCCCATAGTGACGTTTTTGTGCTACGAACCGGAAATACAATGAAAAAGAAAACTGAGATTATGGGCAAGAAAACACGACGTATATGGCCAAGCTAGGCTTGTTTAGACCATAGTTGTATACACCTTGTACTGTGGCAGAAAAGAGATTCCCTTC'
p42
sS'AGAP004709_0bp'
p43
S''
p44
sS'AGAP004679_2000bp'
p45
S'AGGAAAATACTGTCATTTCTCGATCGGCATGTATCTGTCAAAATTAGACTTAGGCACGAAAAGACCTCTCGAACGTCTAATAAGGCAGGATAATTTTTCTGTCACCTTTCACATTAAATTTAATTTTTCGATTATCTTGGCTTTATCCGAAATAATCATTCGTTGCTTCCCATTTTTGTTGTTTTTATTCATGATTATCAAGAAATTCAATACGCTCTAACGACATAGGTGTCTTTTCCGTTTTAAGTTGGTAGGCTGAAATTTCAGCCTGTCAGGCCCGTGTCTGTGCTCCATCGGATGCGATTTTATCGGAAGGTCTGTCAAAATTTAATATGGAATTTGACAGATAACGTCGGACGTGCGATTTCGTCGTACGACAGAATTAAAAATAAAATATTTCGTCGGACGCCGCATCCGATGTTATCTGTCAAACTAAATGTGTGACATTTTTGAAGGAACAACCACAAACTAATTTTTCATAATTGTTAAATTATTAAAATCATCAAATACAGTAGAACGTCGATTATCCGGGGGCGGATAAACCGGTGGGCGGCTTAACCGTGCGCATAAATGTGACAGCTGTTCAAATATACGGCGAAAATTTGCAGCGATAGTCAAGTGGGCAACCAGTTTGTTGTGCAGCTCTGTAGTGTCTAGTGGTATTTACGAAATTCATTTTTGTTCATGAACAGTTGTTAAACCTATAGTTATTGATTAAATAATATTCTACGAACGATTAATCGATTGATTCAAGGCGTATTAATCATAAAACTAGTGAATTTTATAATTTTTATATGAATTTGACATTTCTTGGACGATTATCCGTGCAAATCGGTTAACCGGCAATCTTCCGGTCCCGAGCTGCCCGGATAATCGACTTTATACTGTAATAGCAATATGAATCGAAAAAGCGTTTGACAGCACGTGCGATAAAATCGCATGCGACAAAGCACAGACAAGGCCCTCAGCTGTTTGAATCCCGCTGCGCAAATTCGAGCAGTTTCCTGCGCAGGAAATGTACCAAATCCTGCGCTGGCCAGCCCCGCTGTGCAAAGCGATGGAAGAAATCATGGCGTTATGAGAATTTTATCATGCCATCTTTTTCTCTCCAACGGCAAATTTGTCAAGCAGCCACCCGCTGCGCAAAGCGATCGAAAACTTCTCATACTCGAACTGCAAACATATTTCACAGCGCATGGTTGTGAAATATTTCGCAATATTTCGCAAAATTGTTCGCTAAATTTATAAATGAAATATTTCGAAATTTTCAGCGCTGAAATTTTTGGATTGATATACAGGCGGTCCCCGAGATACACGGTTAATGGGGATCGAAAACGGCCGCAAAATACCGCGTATCTCGAATTTCCGCGTAAGTCGAATCCTCGTGATTTCCAGCTAAAATTTCACTAATTTTCGTGTAATTTTGCAAGTAGGGGGCGGTTTTAGNNNNNNNNNNNNNNNNNNNNATCAATTTGCGAATCTAATTATTTATTTCACATAGTTTATGCAAAATAAAATACAAAACTCATTTCTCGACACGAGTCTTCACACAAATCCGCCAGAAAAAGTAAAAACATTCGGTTTCGCCTACCGCGAAAATCTCAGGAATACCGAAGTTGGGTATCTCTGCGAAACAGCAGGCGCGATCGGAGGCGCGGAAGATTTGACAGCCCAACTGTTCTACAACTGTTATAAACAAGGCGCGAATTTCGCGGTACCGCGACGATCTCGGCTCGTCTATTTCCAGCCTAATATGGAATTTGACAGATAACGTCGGACGTGCGATTTCGTCGTACGACAGAATTAAAAATAAAATATTTCGTCGGACGCCGCATCCGATGTTATCTGTCAAACTAAATGTGTGACATTTTTGAAGGAACAACCACAAACTAATTTTTCATAATTGTTAAATTATTAAAATCATCAAATACAGTAGAACGTCGATTATCCGGGGGCGGATAAACCGGTGGGCGGCTTAACCGTGCGCATAAATGTGACAG'
p46
sS'AGAP028129_0bp'
p47
g44
sS'AGAP004732_2000bp'
p48
S'GTTTTATTTTTAGCTTTTGTTCTTTGGTCTAAGTTTATCGAATAAGTGGCCTAGAACAAGCATGAGCAAGTATGAAAACAAGTGTGTAACTTTGAAACTTCATTCCTTTCGCCAAATGGGAATCATTCGCGCGTACTAATTAAATTGAATTAATTAAATGAATGAGTGAGTGGTTAAAAGAGCGAAAAAGCAAGTAAGCAATCAGTGCAGTCAGTTCGTTAGAGAGTATTTGAACGATAGCTCTTCTTTCAGTGCCTTTATCAGTTCAGCTTGATTAGTGGACGACAGCCTCGGGGTATTGGGTAGCTTGGTTGCGGTCCGTTGAAAGGTAGCGTGCTCGAAGTTAGTCTTCAAATTCGACAAGACTCACTACCCTTGGGGTATTCCATGTACAAACGGTTGATTTAGTGCTCGCGAGATGAAATTATGATTGCTAAATTTCGCACGAAGCATAAAATAATTTGTTCAAGTGGGTATGTACCCAACGATTTGTTTATCGTCCCAAAAGTAATCGAGAAATGAAGATGTAGCATTTATAGTCGTGATGAGAAGAACACTGCTGGGGAAGATGAGACGAGCATCAAGAGAATGTAGATGGGGATCGAGTGGCTGATGATGGAATTTGGAGTTAGAGTTGGTTGAGAAATTTTGAAAGAGATTTTTTGCTTGTTCTGCTTATTTGCAGGTGCTTAGTCTACGAATGAGTACGTCCGTACAGGATTGTTTGACAGAAGCATTGGAGGCTACTTTCGTGATATTTGCTTACTTAACTTGTTAGTAAATTAAATGATTTGTACATGATGTAACATCGTGTTTCTTGCTATATCGGTTGCTATTATGTTTTCTTATGTTCCCTATTATTTCATTCAGAAGGAAGGTTACCAACTTCATATTCTGCATGGAAATGAACCGAACAATTAACGCCATCGTAACATTTGCTTAGAATAGCGTGGTTATTTGTATGAAGAAATATATGTATTTAGTTATTATAGTTTTAATATTTTAGGTAAATTTATTTTGTATTATTTTGAAGTTTGTGATTCTACAACCAATATATTAGATATAGCGGATGGCGGATTCAGAGTAGTGAACGCAGCTAACTTGGGGGAGAAGGAGAGTACTTGGGTCCCTCGGGGTTCCATTGTCCACGGGGGGCTTTCGGCGGCGGCCGCTCAGTCCGTCTATACAAATCCTTCTATACTGGATATAACCCGGATAGTGCGTTTAAGTCCCTAACGCATGATAGTGCAGCAAGATATGTTTAATATTATCACTTTCTTATTTTAATAATATCTTGGACAAATAATCATTTATTTGCTCCTACAAATAACTACAAATGAAGTTGAGGTGTATGTTATTTTTTTGGTTTGCAAATGTGCCTGAGGAGCTTTAACCCTTTCGGTGTTTTGTCCGAGTGCGACTCGGGCTGTGCTTTTGTTCTCCGTTACGTTTGATTCGTCGCGGGGGGGGGGGGGGGGAGAGAGGGCGGGAGATAAAACAAATGATACAGGGTTTCCCAGGATTTATTGGTCGGTTTCCATATTTTTTTGGGCCCGTCGCACGAATTATACAACGTTTCCCATAGATTTTTGGTTCGTTCCCATAATTTATTGGTATCGTCCGCTTAGATATCAATAAAATTGAACCAACAAATGGTTCAATTGTAACTGGGAACGCCCAATAAATTGTGGGAATACACAAAAAAGGGAAGCAACCAAACTATTTTTGGAACTGACCAATCAATCGTGGAAACCCTTTGCAGAACGGGTTAAAATTAGTATCTTTTACTATCTTTTGACCATTAATCATTATGGCTTTGTGCATTTTCTAAAAATCGTGGGACTGTCAAAGGTTTCATACAATATGGAACTGATCAATTTGTTGAAGTTGCATATGAATTTAACGTGTCGGCCATACGATGACCGTAATGTGAATTTGCGCATATTTTATTTTTCTAGAAAATTATACTAAATATTACTTATTCAAATTTTTACTTACAG'
p49
sS'AGAP004703_87bp'
p50
S'AACACACGTGTTTTATTGAGTACCACACGCATCACAAAAATTATAATAAGATAAACTTAACCTTTTTCTAATATAGTATTTAAAAAG'
p51
sS'AGAP004713_2000bp'
p52
S'TTAAAAGAACCGTAGCGTTCGGTTCTTGTGGATCAATTATTTACGTTTTAACGAGTACTGAATGAATCGTGCGGTTTTGGTCCATCTGGCATACATTGATCGTCATTAATAAGTAGTTTTTTCATCGTTTTTTGACGTAAAAATGACCGAAATGCATGCAGAACATGTACAGTGTAACTCCTCATAACGGATACCTCTTATAACGAATTTTTCGCATAACGAGCTCATCTAGTTGTTTTACAAATGTCCTTCATAACTAGTAAAATCTCGCATAACGAGCAATTCCATTTTTGTTCCAGATAAGAAATCGTGATCATTTCGAGAGTTTTATTACTAAGAATTTTTAACTATCAAGCTATTTCCATAAGAGGCTGGTATAAATGGAGGAAAAGTGTAAGAGAGGTGACACATTAACACCCACTGCCAGTCCAAAACTCGCTAAGTCATAGAAAACTCGAAAAAAGCCGGGGCGGGCCGTAGGTCCACGTCCAGATAACTCTTTTCAGATCAGATAGCGGAGCTGAGAGTTTTGATGCGCTTATGGACAGGTGGAGTAGTGTCTTTAATTTCTTTGCTCCGTTTTCTTTCCTTCGTATTTGACAATATTGGAGGTTCTCTTCGGCTTCGGCCATGGAAGTGGCCAGGACGTAGTTTTAGTGTGTAGTGTACCTCCCTAAGAAGCATGTGTTTCACAATTGTGAGGTGTATTGATAGGAGTGTTATTGCACACATTCTTGATCTACATGCGCATGAAGGCGATAATTTTGAAACTAAGAATTTATCAATGGATTACTGTTGTCACTTGGAGGTGTTCCATATGTTTGTGATGTTCATAATCCTTATATACCTGCACTTTTCTTGACCATACAATTATTTCATGAATTATTTCACTTTTCATACCTTTTTTTTATAAAGAAGAGCCTCTCGCATAACGAATTTGTCGCATAAAAAGTAAGTCATTGGAAGGGATTAAACTCTTTATGAGGAGTTCCACTGTATATCTACCTTTGTTAAACTTTTCTCGATTGATTTAAGTGAAAAACATGTAAAAATAAAATATTTTGTGAAGTGGTACTGTTTTTTACCAACAACGGTTCGTATTGACAGATGAGTTGTGGCGAAGTGAGAGAGAGGGACAGGTAGCGCAGGCCATACAAAAATGGGCGAAATCGCGAGAGCACGAAAGGTTCATCCCAAAGAAGCTTCACGTACAACGGATGAACTTGCGCATGCTAAGTGTAATGACCGCAATCGGGTGTTGCGCGAGCCTCCCAAAAGGGCACGAAGAAAAATTTCAGAACAAAATCTACAAACGCGAAAGAAGATTTAAGTACAGCATTTTTTTTTAATATACGAATGTTTTGAACTCTCATTAAGAAAACTGTAGTTGCATCAATTTGGTACACGAAAGAAAGGGCCTTGTTGCGAGACGCAACATGCAGTGGCGGATTTAGGGTGTTAGGGGCCCTAAGCGTTAAAAGGAGTGGAGGCACTCCGATTGGAGTCGAGGTTGGGGGGGGGGGGGGGGGGGNNNNNNNNNNNNNNNNNNNNTCTACTGGGCCCCTATAGTTTATGTTAGCACGTTTTTGTGTTGACTGTTTTGGCTGCGTGAAAAAGGTAAACAACACAACTGCTGTCACCTAGCGACCGAGATATGTAGATAAACTAAGTTAGAAAAGGTGCCGCTAGGTGGCGTAAAGGTTGTTATCAACTGAAAGAGGCAAACATATACATTGCGAAAGAGATGAAGAGACACGATCCAGCCTCCGGTCATACACCCCATAAAGGTCGAGCATAAGGGCATAGACAGGAAACGGCGCGAAACTATTGGCAGTAGCAAAAGCGAGTGTGACCGGACAAGTTAAAAATATAGAATTTGCATCAAAACGTCAAAGATCATTTTCTTATTTCAAACACCCGGAAAGAAATTGTTACCGAAGTAACAAAGTTTTTAACTTTCACACTTGTATTTTCGCGAGTTATAAATTTACGGCATAAAA'
p53
sS'AGAP004726_2000bp'
p54
S'ACGAATTTCAAATTACAAAAAAAAATATATTCAAATAAGACAAACATGGAATGCTGCCAACATAACATTAGAACATGAAGAATGCGCATGTCCGTCATCTGTCGAAACCTAACATCATTATTTTTACCTTCCTTCATTGCACTTTCACAATCAAATCAACTGGGGTGTGTTTAGTATCTACTGCACATATTAATGAAAGCTGCATTATCTTTGTTATTCAGTCATTTTTCGTCTTGTGAGAACTGGGTGCATATCCCTATCGATAAACGACGGTAGTCGAATCGTAGACTATTAGCTGTGCGCTTCCTAGCTTTGAATATCTGAATGCTATTGAATTTCTTATCAGTGTAAGAAAGTGAAAGTGATTATTTAGTGGCAATCTCGTTAGAACTTGGTGCATGTATATTGCTGGTGTAAATTACGAAAGTTCCGCCCAGTAAAATAATGTGCGGTGCAATATAAACAGCTTTGAAGTATTTTCGCCGGAACCGTATTAAAAGGTAGGGAAGAAAACTGTTTGACACACGCCCTTCGTAGAAAAATAATGAGTCGATGGAAATCGCTGCAAAATCCATATCGAAAAACAATTCATTTGTACTTCGGAGGGATTTCATATTTATTACAACATTTAAGATTTGTAGATATATTATTATATATTTTACAAATAGTGCTGTAAACTTGAGCTTTGATGAATTGACGTAGTTGGATTTTAAGGATATTGAAAAACGTTCCAAAGAGAGAGAGTCAAACTTGTTAAGCGCCGGCTTCGAAAATCATCACAAATCTCCTAAGAAGGTGACAAAAACGTCATAAAGTTCACTATATACTTTAAATCTTTTATTCATTCACTGGTTCATTGATGATAGACTATCAATCTCTGCCACTCCGTTTGCAAACTTTCAGAAATATTATTTATGATTTTTTTATATAATTGAAAAACATTGCCGTTGTATTAAGATTTGCGGAACAAATCACGTTCGTTGCTTTGTAAAGCATGAAAGTCTAATCGATGAACACCCAGTCCAGGGAACACGCCTATCCCTGGTCACTGATACCTCACCATGAAACCCGACGATTGATTGCAAAGGATGAATCACGTTACAACCCATGAAGACGAGTATTGATTTTACGATGCTTGTCGATAGATTCGACGAGTTCATGGATGTGTGTTTGTGTCTAGGCCGCGTCATGTTGTCTAGGCCGCATAGCATTGCCAATGTCGGCAGATAGAATAGTTGCTGCTTGATGGTTGTCCATCGCTACTACACACTTTTTAATAAAATATGTGTTTTGGTTAATAGTAATAAGATACACATGTATACCTTTTGACAACATTTGCGAGTGGTTGATCGATTGAGAGCAAGCAAATTTCAATTTATTAGTTTTACTTATTCAGCATGGTAGAAAGTTCTTGATTAATTAAAACTGATCGATCCATCAGACTCGGGATTTCTGCTAATAATGATAATTTTATTGCCCTTTGAATGTTTGCGTATTGCCGCTCCACTTGAGCGACCAGGATGTGACCAGGACAGTATTGTCAATATACTTATATTGATATTGGCTGTACGATTCAATTTGCGATGGAGGTCTGTTGAATGAACGAACGATCTAACTGCCCTTAGGAAGCGTAGAGGTTATCATCGTTCGTCTCCGCCACCGTTAACATGTTCGTCATGACATGATTAGTGAGTCATATTTAAATCATTGGTGGGTCTTTATAGATGGCCATATCGCAGATAGGGTGTTCCTTTTATTTGTTTATGTAAATCAAGCCCAGTACTAGCAGCCAGCTGCGTAAATATTTACGTCATTCACAATTAAATTTTAATTCTAGCCAAACTAATTCTAAACTATATGCTTCAAGTGCATCAATTTCCAAAACTTGCAGGTTAAACATGATACATCGAAAGCAAATTGCGGCAGTTCTTCTTGCTACGGTGTTACTGTTAGTCAATAGCATACTTGGTGAAAATGTTACCTCTATCATACCACCGACA'
p55
sS'AGAP004755_0bp'
p56
g44
sS'AGAP004678_2000bp'
p57
S'TTAGTACTTTTATACAATTTATCATTTATTTTATATGATTCGTGCAGAAAATTCTAATATTTCTGGCTTTTACGCGGTTTCAATTTGTTAGCAAAAATGCAATTTATATGCAATTTATATGCAATATGATTTATGCAATCACTCTGAAAATATTTGTTTATAAACGTTGTAGAAATATAAAGAATTCATTTGTATTTACATAGTAATAAAAAAAAACATCAACAAGTCTGAGTTATCATTCTTTTAATATCACTTATATTATACAACACATAGCTTGAATGACATATAAATTACTATCAAATGACCCAAAAATATAACACAAACAAAATTAAAATTATTCCAGCTACTGCTCCCTTGACGTACAGCGATTTGCGGTTCAAATATGAAGCATCCTTCTTGTACTTCTGAGAGAGCATCGATAAATTTTGTGTTTTGGTATCCAGTTCAGATAGAACAGTCCCGCGTTGCAAAACATCATCAATATTTTGTACCTAGACGATCAATCAATTAGAAAATTGAAATTTCGTTGTTAGGGCCGTGGCAATGCTGACCCGATGCGATTTTATGGAACAAGAACTATATGGAATTTGACAGGTAACGTCGGTCGTGCGATTTCATCGTACGACGGAATCAACTTTTTTTATTCCGTCGGATCGGAATCCCATTTTATCTGTGAACTTAATGATGTAGGATCAATAAATTTTTAAATGGTTTAATTATTAAGATCATCCAATAATTGCAAGTAACCCAAAATAGCGTTTGAAAGNNNNNNNNNNNNNNNNNNNNNNNNNNNNNNNNNNNNNNNNNNNNNNNNNNNNNNNNNNNNNNNNNNNNNNNNNNNNNNNNNNNNNNNNNNNNNNNNNNNNNNNNNNNNNNNNNNNNNNNNNNNNNNNNNNNNNNNNNNNNNNNNNNNNNNNNNNNNNNNNNNNNNNNNNNNNNNNNNNNNNNNNNNNNNNNNNNNNNNNNNNNNNNNNNNNNNNNNNNNNNNNNNNNNNNNNNNNNNNNNNNNNNNNNNNNNNNNNNNNNNNNNNNNNNNNNNNNNNNNNNNNNNNNNNNNNNNNNNNNNNNNNNNNNNNNNNNNNNNNNNNNNNNNNNNNNNNNNNNNNNNNNNNNNNNNNNNNNNNNNNNNNNNNNNNNNNNNNNNNNNNNNNNNNNNNNNNNNNNNNNNNNNNNNNNNNNNNNNNNNNNNNNNNNNNNNNNNNNNNNNNNNNNNNNNNNNNNNNNNNNNNNNNNNNNNNNNNNNNNNNNNNNNNNNNNNNNNNNNNNNNNNNNNNNNNNNNNNNNNNNNNNNNNNNNNNNNNNNNNNNNNNNNNNNNNNNNNNNNNNNNNNNNNNNNNNNNNNNNNNNNNNNNNNNNNNNNNNNNNNNNNNNNNNNNNNNNNNNNNNNNNNNNNNNNNNNNNNNNNNNNNNNNNNNNNNNNNNNNNNNNNNNNNNNNNNNNNNNNNNNNNNNNNNNNNNNNNNNNNNNNNNNNNNNNNNNNNNNNNNNNNNNNNNNNNNNNNNNNNNNNNNNNNNNNNNNNNNNNNNNNNNNNNNNNNNNNNNNNNNNNNNNNNNNNNNNNNNNNNNNNNNNNNNNNNNNNNNNNNNNNNNNNNNNNNNNNNNNNNNNNNNNNNNNNNNNNNNNNNNNNNNNNNNNNNNNNNNNNNNNNNNNNNNNNNNNNNNNNNTGATTTCTTAATTTTTATCATCAAAAATGTCGAAAACACAAAGAATTCTAGAATAAATTCACAGAATAACACAAAATAACACACTTTAATGTATGTTTCAATGTTAAATAAGAACTCACAAAGTCCAAAATATATTTTTAAAGAATATTTATTCGAAAAAATGGGGCAGATAAATTATATGAACAAATTTAATTAATGTAAACAAAGTTTGAATCCTGGGGACCTTACGTCAAGTGACGAATTGTCAAAATGCACTAGAGTCCACCACCTGATATTTTTAAATCCACCTTGCCCAGGACTCAAACTTTGTTTACATTTATTAAATTTGTTCATAT'
p58
sS'AGAP004707_2000bp'
p59
S'GCCAGGTCTCGCCCCCCTCTCTCGGATTCAGATTCCGAAGCACGGCAGAAATAATATTTGAAATGACATGCAATGTAAGGTTTAAGCATTCAAAGAACATCAACAGACTCTCTTAAACGCATGCTATCTTATGTAAATGTAAAAAGTCATTCAAAAAGCAAAATGGCATGAAACACCTCGTTCTTTACAATGGAAAAGAGAATCCCAAGAGAAAAAAGGTTGTTTTGCTGGTGCTGAAACACTCTAGCACAATCATTCAGACAGTGAACGTTATAACATAATATAAGCATGGAATCTATCATAGCAGCAAAGGGCGCCTATCAAAAAATAATTATTATGGAAAAGAACCAATCATTCCTTTGTCGCTAAATCCCTTGACACAGATATTAAGTCCATAGCCAACAATAATCTCGCTCTTTTTCATCAAATTTATAGATCAAGCAACTTACATGAAACACGGAACAGATTTAAAAAAAAATCAATACAAACATTTGTTTATGTTACAAATTATTCAATGATCTTACAATAGACACTTTTTATAGAGACTTTGAGCCAATTGGTCTTATTTGCCTCTTACAATTCACACATAAACCAAACAACAACGTACACTTATTATTATTGTTTTATTGCAATATAAACATAGCTTGGTTGATCAAAAATGCCTTCATTGGACTGAATTTGTCAAACCTGCTTTCTGAAAGGTATTTTGTCTCAATATTACTTCTTTTTAGCACTAGTAAAGGTCCCATCACATTGAGGAATATGGAATAGAATTATTACGTCATAACGCTTTTCACAGCTTTAATCTCAGCCAAAAATGAATTGCTCCTGGCCAATGTAGATTCTGTCAAGACAGTGGCGGATTTAGGGTATCGGGGGCCCTGGGCGGTAAGACGAGATGAGGCCCCCTGTAAATGGTAAATGGTTTGCGGGAGTGGGGTGCAAAGGAATCGCCAGCGTCAGCACTCCAACGTACATCCTTCCGGGGCCCTTGTCGCTAGTACTCTGTAGTATGCAGTATGTATAAAAGTGGACAGACTAGCGATTTACGGGGCCCTTAAATTGGCAGGGCCCCAGACGACCGCCTAGTATGCCTACCGTTAGATCCGCCGCTGTGTCAAGAAGGAAAATCAGCACTCTCAAAGTGTACAACGGTGGTTTATTGAGTAAGAAACACATAAACCAGGTATGAGAGTTTCTTCCCAAAACTAATTCAACACAAAATAGTTATTTACATGAACCACAACCAATAACAGAAAGACATGTTTTACATAAAATTCCGTTCCATTATTCCGAGTGTGTTTTTACATTTGCGGAGCAGATTTTTCTGTCAAATGAGGTCAGCGACAGATAATTTCCGAAATTATTCCTGTAATGTAATTGGGCTTTTAAGTATACTCATAAGTGCGTATGCTTGTGTAAAGTAAAACTTAATTTTATGAAAATTTTCATCTAAACCTTGTGAAACCCTTATCAACAATAGAACAAAAAATAAGGATGCAATAATACATTTTTAGCACAATTTCAAATGAAATAAACCGATTTATTTAGACGAACCAACTATATTATCATCTTTTTTTTTATTTGCCGCAACAATTGTTGTCGGTGAACGCCAGCCGAATAAATTATAAGCATTGCTGTATTTGATTGATTAGTGTACTAGTCAGTCAGTCCTGCCTATGGGGAGCTCGATCGATTCCATTATATGGTCGATAATGGGCATGTTCTGAGGTTTTAATTTGTATGTATCTGATATTCCAATTATATTTTATTTTTCGTTGAATATAAACTCACTGAATTATAGTCGAGCAATTAATGCAAATGATTTACATTAGCAGTTCAAATTATATGTTAAGAACATCAAATCTACATAAATTCATTTTTTTTTGTTAATTTCTACTCGGTAAATCTGTGTGTGTTTTCCACTGTTACAAATCAATGAATGTTGCTTACCTATGTAAGCAGAAACTTTATGATTTAAGCCGAATTAAATCCGCAAT'
p60
sS'AGAP004735_998bp'
p61
S'TTTGTTGTTGCTGTTTAACTTGTTATTGTGTCACTTTTGTTCGCACAGTTGATGACATCACGACAATTTTGGTCAAAACTCTACGTATGATGTAGAGATGTGCACACAACTAATTGAAACCCTTGTGACTAGCACCATTATGATTTAGTATTAAACTACTACTATCCTTTAAAAAGGCAACCGGATACCCCGGTAATTTTTGAACTTTAAACTATAATTACTTTTGATTCATTGCTGTTATTGACCTGACATTTTTCGTAGCCTCCCAACTTTTAATTGCCGATTTTTTGGTGCATAAATTGTAATTTTCCCCAAGCTGTAAGTATTTTATTTTGTTTTATTTTGAACTTTACCACGTCAGTTGGCAATTGGCAGCATACATTTAGTATGGAGAATGATGTTTCTCTTCTTCTTCTTCTTTTCGTATTGTGCTTATTTTCGAGTAAAATTTAAGTGATTCAAAATTTCAATTAGATCGTTAGTTTTATCATAAAATGAAAAAAAAACTTAATGAATAAATCAAATAGAAGAAAATATATGGTCGGCATTACTTGCTTACGGCATCAAAAGATAGAAAGCATTGTTTACACATGAAAACGGTTAATTTTTTGAGTCAAAACGTGCGGAATTATTATTGAGTTTGATTTAGAGAAACAGAATGTTCTTTCTTTGCCTTTTTGTGTTATCGGAACAATTTGCTCCAAAAGCTATCAATTGAAAAATAAATTGCATTCACAGAAATAGGCAAACTTTCTGCCCAATCAATTAAAACAAATAACTATAAAAGTAATTAATTATAAATACAAAATTATTCTTTAGATTTTTTCTGAAACAACATTAACAACACATAGACAATTTTTATTTTTCATTGGACACGAGACGTACGAAGAAAAACAACAATAACATTTAAACTTTACAGCAAGACTTACAACTCATGGTTTCCATGGCAATTTTCATGGTAAACAAACAGCGCCGGGTTGGATGTTGAATCCAAGAAC'
p62
sS'AGAP004737_0bp'
p63
g44
sS'AGAP028013_1321bp'
p64
S'AAGGAACTTCAGTGTGTTCAGACGGGTCGATGGAAGCTTCTGACAGTTGTTGATGATCTTAAATAAATGTTATTGTAGAAATTAAACCATCATCTTTTTACTTTTTACTTATGATGGGCAAATTTTACGGGTTGTAGACATGTTTAAGATTTGTAATAATTGCTATAGATCTCTAGCATATACATGCATCACCTGCTTACGGACGCATCATCTGTATATGATTAGATGCAGGTTCTATAGTGTATATTTAGAATTATAATTATAATTATCATGAAGGGATGTCTACCCTTACACATAATAATTATTTGTCCAAGCAATATGTGTGGTGGTTCAATTGTTTAGGTAGTATACCACTAGAAGCTTTGTTTCTTTGGTTAACCAATTTTATTTAGAGTTACGTTTCACAAATAATCTATCATTCTTGCCATTTCTATTCGTTGATCTAACTATTTGATGAGTCCCAGTTGCTATCATGTGTACAAGAGTATGCGAACCCCTTTATGTAGTTTTGACTTTCCAATGCAATGCATATTGGTGCATACGTGATCGGCCTATCTGAAACTACCCCATTGTTGCTTAATTCTTATGGAAAATATTTGGTTGATTGAATTACACACAAAATACAAAGAAAGAAAAGATTCAAAACTTTTCGAACCTTAACATTAATTTATACTATCTTATAGTAAGAATGAACGATTCAAACAATGATCTTTGTTACAATCAACCGAAATATGTGAATGGTTTTGATAATAATATCATCATGGTGTATAAAACCATCTGTACCAACCGTAAGCTTGAGTTTGTAGCTAAAGGTAACATGATCAGTTTGTCAACAGGATGGAATAAACTATATTTCTTCAACAGCGAAAATACATTTTTTCCATTTATACATTGTGTCCTTCGACAACGATAGGTGCAGGAAGTTTTTCAATAACAAGCGTATTAATTTTTTTTAATTGAATCAATAGTCTTTAGATGTCGCTTTTCGCTGGGTGTTTCACGTAGCGAGCGAGAAAACAGTCTCACATATGGTGAGGTCGTTTATGGTTGGTTAAGCATTACTTTGTCGGTTGCTTCACGCGCAAAGGAAACGAGTGACAATAAAATGCGAAAATGTGTAAGACGGCTCATCGGCAAAAATCTTGCAACCATCGTCCGATCAACAAACGGCTGTGACGTTTCGTGTGGGTGCTGCGAAGTAAGCAAGTTTTGGTATAAATACTGTGCCTCTTGGCATAAAGGGTATCATTCGAGTGTGAGCGTTCGCGTAGCGGTAGTTAGCAGACAGTAGACCCAAACGTTCAACAGCGGAAAGGCAATC'
p65
sS'AGAP004696_2000bp'
p66
S'CTTCAGTGTTGTAATTGGAATATGTTGATTTCGACTGCTCTTAAAAATCGACCGTGTATGCCAGTGCTCTCAAATATTTTTAGGATCGCGGACCACTTGGTTTTGGAAATACATTTGCCGTGGCCCATATCTATTTAGGAAATAATTTTAGAATATTTTTTTAGACTAAGCTCAAAGTTTTTGACCAAAAATATGTTTAAAATATGTGGGAAAAAGATGCACAATATGTTTAATGAGCTTTTGTTTTTCAAAAATAAATTCTTTCGAGGACTACGTCTGTTAAAGCCTCAGACCACAGGTTGGAGCCCACTGATGTAAGCAATAAGCTATGCAACAACTACTTGAATTTCAGAAAATGCTCTGTTTCTGAAGAAATTGCTTCTGCTATTATAAATTGTGGTTTGGAATAAAAAGAAGACGAACTGAGAAAAAAAAATTAAAACTATCAAAGGGAATGTGTCGTGAACAAACCCACAAATTATGGATTTTAATTTCTTTAATTTTGAAAGAAACGAATTGCGTCAGAAAGTTTTACTTATATGTGATTTTTTTTCCTAAATTGAATATTGAAATCAAGTTTAATAATTCATTATGCACCCAGATTAATTTTCTTCTATTCTTCAAACTCCAAAATTTCTTAACATCTCGTAAGAACGGCCTTGTTGGTCGTATCCCAAGTGACATTTGCTCGAAATTGTTTTCCCGTATCTGCTCGGTAGTACTCGATACGCTTGAAATTTTGGATTAGTATGTGATCAAGTGTGTTGAAAGCGCCAAGATTTGGTGCGTTCATAAATTAGACGTTCCTCTATCGATGGACGATGCCGTCGAGGTCATTTTTCATTCAAAGCTATGGTTTTTTGATGAAAAACAAAAGCTAATTTTGTGTGACGTTATTTTATATAAAAAAAGATATTATTTTAGTATAAAATGGGAACTTGGCCAACTAAAACGATAGGAAACATCTACATGTAGAAGAAAGTAACGAAAAAGCCGCATCACAGTTGATTTTAAACGACTTTTTCTGANNNNNNNNNNNNNNNNNNNNNNNNNNNNNNNNNNNNNNNNNNNNNGAGCCTTAAACTTCCCTTAAACTGCACCAGTTTAAGGGAATTCAGAAAAAGTCCTGTAAAATCAACTGTGATGCGACTTTTTCGTTGCTTTCTTCTAGATTCGATCGGAAATGATGTTTCCTATCGTTATAGTGGGTCATGTAGCCATATTATTCTTAAAAAATATCGATTTTTATAAAATAACGTCACACAAAATTCGATTTTGTTTTGCATAAAAAAATCAAAGCTTCGAATGTAAAATGAGCTCGACGGCATAGTCCATCGATAGAAGAAAGTCTAATTTACGAGCACGCCAAATCTTAGCGCTTTCAACACACTTGATCACACACAAATCCACAATTTCAGGCGTATCGAGTACTAATCGAGCAGATATGTAAAAACAAAATCGAGCAAATGTCACTTGGGTTGGGTCCCCATTAACCGTGTATCTCGGGGACCGCCTGTAATTCCAACCATCCCTGCATTTTGCAGCCGCACCTCTTTCCATAATGTAGTTACGCACACTGATGTATGATTGGTATCTTAAGATTTGCTGAAAACAAAATTATTATTACATCCTTATATTACTCTAAACACTTACAAAAATATATAATTCCTTCTTAATTATTTTTTGTCTATCCCATTCCAACAGTATAAGCAGTGCATATTATGCTAAATCATATTCTTAATCGGAATATCTGCATTACATCAAGTTAATGATATTTTTTTACAGGCATGAATTTTTCATAACTTAGAGTGTCCATGGAAATGTTTGTATGGAACGCTAGGAAGATACGTTGTTGAGTTCATAGTATAAGTGTGAAGAATACAAACGGGTCAAGTATCACAACTACACGAGTTCTGTTCTCACATACACATCAGCAAATGTCATCTATAGATGATGAGGGTATACGTTTGCAGAATGAGTAGTATGCGTGAAGCATTTCG'
p67
sS'AGAP004740_2000bp'
p68
S'AATCGAGCCTTTGGTTCCATGAGCGAAGTGCAAATCGTGAAATTTTGCGCTGGATTGATTCCAATCGAGCTAACGGACGCGCTGCAGTTGGCCACCATACGATATTTGCATATTCCATCAACGACCGGATAAGTGAGCAATNNNNNNNNNNNNNNNNNNNNCTGGGTGACTGGCCCCGCGCCCACGTGACCATTTTTGTTTAGCGTCGGGTTGCCCCCCCCCCCCCCGCCGTTTAGGCACCCGGTTTCCCGGGATACCCACCCCCCTCCTGGTTCGCCATATGCCACCATCCGCCCAAGGGGTTGGGTCAAGCCCGTGTACCCCTTTTGGATATGTGGTGACATGTTACCACTCTGCACGACTAGGACGTTTCGGAATAGGAGTTGGATGGGAGAGCCTGTATTATCCCTCAATGGGGCTTCGGATCCCATCCCATTAATTTCCACTACGTATGTCTGATTAATTAGGTAAGACTTAAGCCACTGTACGAGTGAGCAGAGAATTCTTAGCTTATCGAGTTTAGCGAGAAGAACTGCATGCGGAAGAGAGTCGAATGCTGCTTTCAGATCTGTATAAATTGCATCGACTTGAGCTCCGACATCAATATGGCTAGTGCAATAGGTTACATATTCAACCGGGTTCGTGGCAGTCGATATTTTTGGCACGAATCCATGTTGATACGGGTTACGGTAGCTGCGGCATGCATATAGCAGATGTTTGTATATCACTAGTTCGAACACCTTGGCTATGGCACACAAAGACGTACTATCCCGGTAGTTTATGACATCTGTCCTGTCGCCCTTTTTCTAAATAGGAATCATCCAAGATTTCCTCCATGTTTTGGGAAAGTAGCCATTGGCCAGCGATACATGCATGCGATGCTAATAACATGCAGAATAGCACTTTAGTCTTGTACCTTTTGAGTCAGCTTGGAGAGAATGCTTTCAGTTCTAGGTTGCTCATAGAAACTACGTTACCCTAATAGTTATCATATTTGAGATGAGTTTATAGTTTAAGTATTGAGGACGGTCATTCCTGCGGTCGACGTCAATAGAACGACATAACAACATGCCCGTCGTGGGATAGTATGTCTACTATTTCCTACTATAAAGTATTTCTTGATAAAGTAATTAATACCGGTTAGAGTCGCAAGTAGCCAAAATGTATGTAGATTATATACATACTGCCCTGGAAGGATTGCCCGTGCCCTTGTCTATCAGAGTAATAATGCATTAATATAGTAACATCGCTAAATTTACTCGTTAAATGGGTTGAAACAAATCAGCACAGCAAATTCAATGCACATGGATTACATTCATTGCTTAAAATAATCAATCTTTAATCGACTTAGTCATCCAAAACATTGCTCAAGGCGCCATCGCAAGTTGTGTCAATCAATCATTCGCGCGAAATGGATTTAAGGTAACGCCTTCATTATTAGGCACAGTTGGGCAATTACAATAATCGAACCACATAACCCATAGCCCTTGCTCAGGTAGAAATGAAAACAAAAAAGAATAAGTAAGAAAATTATGACTGTTAGTCACGATCAACGAATTACCAAATATGTACAATGCTTGCCGAGCATTAATGGTGTGCATTAAATTAACATCGACCGTGTTATAACCCGTACAAGGCTTACAACTGCGAAAAAGTTGAATGAATGGTAAAAGTGAATTACAATGCACATGGATGTGAATATAGGAATTGTGCATTCACAAAATAACATTTTTTCCACTAGATATCATCCATCGCAGGTGTTGTGGCTGCTTCATGATTGATCTCTTATCGACATCCTATACATTCGACAGCGACAATATAGACCTGCAACACATATTTTGGGGCGGAAACATGATTGATAAAGGAAAGGGACCATTATAGACAGCTTTACTGAGCACTTATCGCGCGAAAAGGCCGATCTGATCGACAACGAAACGCCATCAAATGAGGGCTGTATATAAGACACCGTTTTCCGATTGACTTCCAAACAGAGTGTTGCT'
p69
sS'AGAP004765_2000bp'
p70
S'ACCTTTGCTGTAAGATTTTTGTCAATGTTTTGATTTTTTTTTTCATACAGCTGTCTCGTCTTCCCACATCGCTCCTTTTCTATGTTTACCACAGTACATTTTTACCACAGTTGTGTACAGCAAATCGAGAGTGGGAAACACGCTAGAACGAGATGCAAGATACATCGAGAAGTCAACTGTGAATGAAAACCCTCAGCTGTCAAACAGATGACACGACAGACTGTACAACCAGAGCGACCAGAAATACCGAGTTATCTCTAGGGTAACTGTACCAGTTTTCGGCACGCTAGTGCAGAAGTTTCACAAAAACTGCTCACAAATAAACATTTTTTTATTATTTTTCATGCAAGTTGTGTTACCCAAGTGCCACAAATCCACTAAACGACCACTAAACGGCTTCTAAACGACTCAAGTTCTCTACCTAAACGGAATATAGAAAGACTTCATTTAGCAGACGGCAAACGACTCATGCATTCTAAAAATAGCGAAAAAGCTGGTGGCGCTCTCTGTTGGTGGGATACCCCAACCAGCTGAGCTTCATCGCTTGGAGAAGAGCTTTCTCATTTCCTCTGTACTGTTGTATGCTTTCGCATTGAAGTTATGCATCGCTAGAACTAGAACGGCGATACGATTGTTTAAATACTAAACTCCAACGGAAACCACCAGCACTGAAGCAAGTGAGATTTGAGTAGCGGTCGTTGGTGTTGATACCCACGTATCTGACCACACGACCATTTACATAGATTTTTGCTCGGAAAGATAGAAGGCTATATAGGTCATGATAAGATGAAACTTGTCGAAACACATTGCAAGAAAAGGATAGCAATATAATAATGAGCTGTAATACCACCGACAAACCGACGTGACACTGGCGTTACAAAGGGGCCCACACGAAAGTACTGTCATTTACCAGTGAGGCGATCACTTCTGTCCAAGGATAATGTATTTAGAAGGTTGATTTTTATCGCTTTTGCTGGGCGACATTGTGGGGGACATCTGTCACTCTCTGCATGCAAATTTCATTACCCCGCACCAGCCCTCCTCGATTTTTATACCAGAGCCCACGGAGGAGAAATGTCAAGTCGAGAAATGTCATTTTGCTCTGAACAACTTCACCTTGTCATTTATAACACCTTGGTTCTGTCAAAGTAAGCTCTGTTCACTGCTGCTTCGATGTAAACAACTTTTCTAAATACAAATTGCAAAGGAAGTGTGAGGCAAGATTTTGTGAGAATTATTGGATAACACCAAGGAAAATCTTTTTATAAGTTTTCAAATCAATGCAAAAGATGTGAGAAGTACATAAAACAATACGCATTGTAATTTGCGAAGAAAAACAAAATGGGGATTCAGCAGTTTCTTCTCTGTGTCAGTGTAGTAAGCGAATCATTATACAGATGGCGCTAGAGTTTAACGTATTTTCATTTGAAGTAAGGAGACAACTTTTGAAGCTCATTTTGTTCGAAGTGTCACGTCGGTTTGTCGGTGGTAATACCACAGATGACCGCCCTAAAANNNNNNNNNNNNNNNNNNNNNNNNNNNNNNNNNNNNNNNNNNNNNNNNNNNNNNNNNNNNNNNNNNNNNNNNNNNNNNNNNNNNNNNNNNNNNNNNNNNNNNNNNNNNNNNNNNNNNNNNNNNNNNNNNNNNNNNNNNNNNNNNNNNNNNNNNNNNNNNNNNNNNNNNNNNNNNNNNNNNNNNNNNNNNNNNNNNNNNNNNNNNNNNNNNNNNNNNNNNNNNNNNNNNNNNNNNNNNNNNNNNNNNNNNNNNNNNNNNNNNNNNNNNNNNNNNNNNNNNNNNNNNNNNNNNNNNNNNNNNNNNNNNNNNNNNNNNNNNNNNNNNNNNNNNNNNNNNNNNNNNNNNNNNNNNNNNNNNNNNNNNNNNNNNNNNNNNNNNNNNNNNNNNNNNNNNNNNNNNNNNNNNNNNNNNNNNNNNNNNNNNNNNNNNNNNNNNNNNNNNNNNNNNNNNNNNNNNNNNNNNNNNNNNNNNNNNNNNNNNNNNNN'
p71
sS'AGAP004763_783bp'
p72
S'GTGGAAAAACATTAATGCAAGTCAAGGGTATATTTTGAATTGAGCGTTGCTTTTTCAATGGATTCTGTAATTAACACTATTTATATAATTTAATTCAGTTCGGTTTCCAAAGATAGCTATCTATTATTAAAACACATCGAACTATGCTTGATTTTCACATTTGTGTCAGTACTGAAAAATTCACAATCCACACAAGTTACATGAGTCGCACGACAAACGACAAGCTTGACCCTGATATGTATAATTTACAAGTGGCATAGTCATGGACTCGATATGTGGAAATTTATCGTTTTTATGTCTAAAAACATAATAAATGTCCGGAATTTGAACCAACATCGTTTTTATGCCGATTCTCTATATTATAAAATTTGTTCTTGTATATATCGTGAAAATAGATATCCGATAAGTTTCCTGTTTTTTAATGTTAAAATACAAGATCTTCTTCCAAACACGTTTCGCGTTTTTTAGGTTTACTGTGAGTTCATGCAGACATATTAATTTATAAACTTTAATGTAAGCTAATCTACTTACCTGTAGGTAGAATTAGACATTTATTGGGTTCCCACTCGGAAGGCAATTCCTGAGCAAACTCCTGCATATTACAGTTAAACTGAAACATCAACTTGCTCGTTTAGTGGTTAACTACAAACTTAGGTACCTCAGGTAGGGAGGCTTTGACTACCACAGTGTTAAGTTAATGCTTTTCTTATTCTCAATTTCCTATTTTCAAATCACTTTGTACATTTTGTTGTAAAAGAATTTGGCTATTTATTGATTTTGCTA'
p73
sS'AGAP004684_35bp'
p74
S'TGCATTACCCAAGACAATAAACAATTGGACCGTCA'
p75
sS'AGAP004773_2000bp'
p76
S'ACATCTACATGACATGGCATGGTTTGCTACGTTAATATGTGTTTCACCACTATCGAAATGTCCGGGCAAGGAAAGAACAAAGCAGTAGATGCAATCTCACGAATAATTTCGATTACGGTAAAATCTGTTCTAAACGTCATATTTTTGTTCGGGATCAGTGATACCCTTTGCCTGGTCTTAATGATACGGGTATAATCATACCGATCCAAACAATAATGTTTCTGTTTTTTTTACATAATGTGAACGAGACAACAACTACAAACGAAAAACGTATTTAATTTTTTGTGTTCATTATAAACGGGTTGCAAGGCATTTAAGACAAACCATAAAATACATTTGACACTCATAGAGTAAATGCGAAGAAAATGTGTTGATTCGATTTAAACGTAGCGATACAATATCACAAATCGTGAAATATGTATCAATCAGTATTTTATCCTTAACTATTTGCAAAACGTTTTCACTATAACTTACTTTCTCAGTCGTTCTCCCTCCTCGCTATAGAATTTATTTCGAAGCATTAAGCCCCGCCGTACGATTCGATACTCTGCACACCGAATCTGCAACCATCTTTGTAGACGTATACATTATGCACGTTGGTGTAGACTAGCACTTGGCTATTGACTGTTTGATAGCTTACCATAAGTGCTGGCACGCTGCATATTAAAGAACCAGGAAACGGGCAACTAGAAGATATATTTATACTCTGAAGCTTTCCAAAGATGGACGTATCGAAAGCCGTGTAGTTTACGTTGATAATCTGAAGAAAGTTTTAACAGTGGCCAGTGTGCCGACACTGTGATGGGAAATCCGGAACCAATGATCCACTCCGACTCTGGCACTGAATTTGATTTTAGTGCATTAAAAACGTGTTTTTAAATTGTTTTATTTTTTTAGTAAATTTTATCAAATATCGTTTGATGTTTCGTTTACTAGATTCATCCAACTACACAAATATCTCTAGAGATTGTACTATGACGCAACATTTATGGTTTTCTGAACATGGTTACTTGGATCATTTGAAGACAAAAATCGCCCTAGCAACGAATAGAAACAGGGGACAGCGCAATCCATAGCGAAAGGTGCATTTGAGACAGTTGGTGCGAATAATGTTCGCAAAATACGGCGATTTGAGCATTACATTTCCATCGTCAAAAGTAAGGGATTTCATTAAAAAATAACGTGTTAAAACACGATTTAGGCGATGCAAATTCCGAAAATTTATGTCTGTGATCGTTCTGACAAATCTCGAAACGGAGGCTTATGATCCACAATGGCACCTCCTTTATTTGAAGAAAAACTTGCGATGGACGGGTGAGCAAGCATTGAGAATTAGTTAGCATTTGTTTATGTTTTCTACCGATACCTAAACCGCGGTTCACTTAAGCCTAGGCCATAAGCGAGAAAGAGAAAACACTAGACAAGAAATGAGAGGGAACTAAGCTTGACAGCTGATTGCTGCCTTGCGCACCAACACTTGCAAACATTCAAATTCCGTTTGTACGAGCGGTAGGGAAGAAGGGCCGGACCGCTCGACAAGCTGCTCGACAAATATGCCATAGGGAAGGGCTGAAAAATAGAGCGAGAGGCAACTATTTTGTTCTGTCGCTATGTTCTGCAGACTAGTGATGGGACATTTTCAAAAATATCGGAACGGAACGGAACTAGGTATTTTTCAAACCGTTCGGACAATTGCGAACCTGCCGTTCCGATCGAACATACTAGGTTCAAATTGTTTATCCTAATTACGTATCAGGAAATGGAACGAACCTCCTAGGTTCGCTCCAGAACGCGCATCACTACTGCAGTCGTAAAAATACCTGTCAACTAGAGCTGCATCTAACGATTCATTGCACAACTCGAGGTGCGAACCTACGGGAATCGATTCTGATTTGAGTTCAGGTTGAGTTCAGGTAGGTGCAGCGATTCCGGTAGGCACAAGAAAGCATTAGCGAATCGCACCCGAAATCGAAAACTCGTGGACGGAAATCATACCAGTA'
p77
sS'AGAP004689_2000bp'
p78
S'GCCCAAAATTTAAAAAGCAGCGTATTCGGATTAATGGCACTAGTTGAACTTACAGAAACCTCAGATGTATATATATATATATATATATATATATATATATATATATATATATATATATATATATATATATATATATATATATATATATATATTATATAATATTCGTTTTCGATAATACTTCCTTACACAATAATTGAAATAGTAGTATAATGATTAGACATGTTTATCAAAGCAAACATAAAAATGCATGTTTGTTAACAGCATGAACAAAATTTATTCTCAACAAAAACAAGCTTCACGTTGTACAATATCGAATGAAAAACAAATAAAATATCCGTAAGTGCCTTTAAGGAAAAATGAGTAAATTTAAATACTACACCTAATTCACTCATAAAATTGGATTTTGTACCTTTAACAGAAAATGAACATGACTATGTATACAGGCACAAGACATTTATTACTGTATGAAGTAGGCAAGTATTACGTCAACCTCGAAAATTTTAAATAAAGGGACATAATTGATACAATTTATAATTATTGTCTATCAGTCATGATTAATCATGGTGTATTTTGTTGAATCATATATGTATGCCTATAACCATAAAACTGATCAATCAACAACACTTCATCAGTGAAAACCAAAACCAAACTATGTACGCCCACACAAATTCATTCAAACTCCAAAAACGCATTTTATTTACATTTATTACTTAATTAACATTTTATCTGACATACACGCGTGCTTTTGGTTTGTGTGGTAATTGCGGTGTTCTTTTGTAAGTGTTTGATCCTGATACTTCTTGATTGATTCATTGATTAATAACTCAAACTTTAGAGAAAATCTTTTTCGATCAGAAGCTTTAAAAATTATACTTACTTAGTCACATTGCAAACCATCACATAGAGAAATTATTTAATATTAACTCACATATTATTTCAAGTTTTTTGGATAAATGAGAGAACAAAACTGCAGAACATATGTACCTTATCTAGTGGCGGATTCATCGGTGATCGGCAGCCAGGGGCCCCATTAGCCGCGTTCAGACACGGCATATTCTGCTAATATATTCTTCTAAAAAATATCTGACAAACACACTTTTTCACTGAGGTAGGGGAAGTCTATCAGCCTGTGGCAAATCTTTCTCGAGCAATCCAAGCTATCCATAATTGGACGGATAAGGCCCGGGTCTATGAACATGTTGCGGCAACATTTATTGATATTTCTGTTTATTTAAAAAAATGTGCTCGTATTTCCTCACAAAAACATTTTAAAATTAAGTTGAAATTATGTTTTATCCGTTTTGCTATGCAAACAAGTCCGAAAATGTTCCTGCAACACATAAACATGAAACAAATCGATTTGTTTCTCTTGCAACAAAAATGTTCCCGCAACATTAGTTTAACAGTTCGTCCATACGATTTGGCAACAAATGTTCCCGCAACATTTTTATAGACCCTGGCCTAACCGCAAGACCAGACGAGGTGAAATATACAGCGAAATGAACTATTTGACAGGTGAAATATCTGTCAGATAACGCATCACAGCAACCAGCTAATGTGCAATGTAAACAAACGTACACTACATACACCGAGAAAGCAGCTGAGAAAATAACTAACAGCATGCTTTGACAGCGACTGAATTGGGAGTTTATGGCGGACGATCAATTATAGTTTGCATTTTTGCTATCTAATAATTGTAGAAATATTATTAAAAAGTAAAAGAAACTTTTTTGACTTCATTTTAGTGATTAAAATAGATTTTTTCAACATCATTTTAAAAGTCTCATCTCGGCACTTTTCGGAGCTTCTACACACACCGGCGTGAGAAACCGGTTATCAATTCTCTCACAGCCATCTCTCACCTGCAGTCTCGGTGTATTTAGAAACGCTCTGACGTGCGATTTTTGATTTTTGAAAAAAAAAAAATGATTACGTCGGACGCCGCATCCGATGTTATCTGTCAAACTAATTGTGTGGTGTTTTGAAGGAACAACCTCAAA'
p79
sS'AGAP004727_2000bp'
p80
S'ACGACTACAGACGAAACAAGTATAGCACGGTGGAATAATCATATCAAAATAATAAATTTGATAATAAAAAAATAGTTCACAATATGGAATGTACATATTTTTTTCTTTCAAAGTTGGGCTCTTTTTAATTGTAAACACATGGTACGTATTACTTGTCCAGTTTCCATCAATCTTACCTCGCTGGTGTTGCATCCTTTTGTTTTGCTTTCTAGGATGATATTTGTTCTTGCATTGTGATTCTTGCCTCGAAATTTTCCATCGGTATTTTTCCACTACCTGTCCGTACCTAACTCAAAACAGAAACTCATGCCATAAAATATTTGCCATAAGGAAGTTAATTGTGTCAATCTTCTTAATTCTCTTAAGAGAGCTGGTGCTGTGACCCACCTTCGACGATTGTTGAAAGATTCTTGAGGTTGGTTGTTATTGTAAATGGTTAATGTTGTTATTGTAGAATTATAGGGGTTTGGACCTCTTGGCGAAAGAGACCTCTTTTAAGTGCTTCAATGCTTCATCTGACCACATAGTGATCGGATGGCAGCTTATGCCTCTCGATGCTATTGTGAGCACTGTTGCTGACAGTTGCAATCCTTCGAAAATAATCTGCTCCAGATCTCCAGCGTGGTCGACCCATAATCCTTTTAAGCGTCTTAGTCACAATCATCTGATATATTTATTTCATTATTTATTTGTTACATTGAATGAATAACAAAGTTCCCAGACATTAAAGATGTTTAAACAACTGCGAAGTACTGCCAAAATCAAACAAGTGATTCACATCATTAAATGCACTACTCATCGAACTAAGTGGATCATTGTAACGTTAGTCAGTTCGCCGTCGAGCCACCGTAAGCAACGGCCGATAACGCAATGAGGTGGTGGGCGCATATAAGTTCAGATGCTCAGCAGCCATAAATTATTGTTGCACTATGCGGCGTCGAGCAGAGACTGACTGGAGACCGAGAAGTAAGAGCTTCGAACTTACTTATCCGGCGCTACAACCGCTTTGCGGTCTTGGCTTGCCTCAGGAGTGTCCGAAACCGCTCACGGTCTCGCGCCTTCGTCTGCCAGTCCGTTATCCCGGCCTTAATGGCGGACGCCTCCACGCCATCTTGCCACCTCAATTTGGGCCTACCACGCCTCCTCTGTCCTTGTGGACGACCTAAGAAGACTTTACGGGCTGGGTCGTCCGTTTCCATGCGTACAACATGTCCAGCCCACCGGAGCCTGGCGAGCTTAATACGCTGTACGACAGTGAGGTCGCCGTACATCTCGTATAGCTCGTCATTATAGCGGCTCCTCCATTGTCCTTCCACACATACGGGGCCAATTATCCTTCTGAGCATCTTCCTCTCGAACGCGGCTAAGAGGGCTTCGTCAGATTGGGACAGTGTCCATGTCTCAGAGGCGTATGTGAGTACTGGTACTATATAGGTACTATATAGTCCCAGCTTCGTCCGTCGCGACAGGTTCTTTGAGGTGAACTGCTTTTTCAGGCTGTAGAATGATCGGTTGGCAGCCAGCATCCTTGCGCGCAACTCAGCTTCCATACTGTTGTCGTTGCTGACCTTTGACCCCAGATAGGTGAATTCTGGGACGACTTCAAAAGTGCGTTCACCTATCTGTACATCACGCCTAGGTAGATTCTGATTATTTATTGGTAGGTCCGCTGATGTTGCCACCATCAGTTTGGTCTTTGCCTCGTTTATCTGCAATTCGAGGTTCTCTGCCGCCTGCTCGATCCCTTGGTAGGCTTCTGCTACATAGGAGAGCCGCAGACCAATGATGTCTATATCATCAGCGTATGCCAGGATCTGGGTTGACTTATAAAAGATGGTTCCCGTAGTCTCCACCCTCGAGTCACGGATGGCCCTCTATAGCGCCAGGTTGAATAGGAGACAAGCAAGCCCGTCTCCTTAGCGCAGACCTTTGGTGGTAGCAAAAGGTCCTGAGAGTTTTCCATCCACCCTCACCTGGCATGTGACGTTGGTCATAGTCAT'
p81
sS'AGAP004683_2000bp'
p82
S'CATGCGCTATATAGGTCTGCTCGAGCGTGTTCCATTGGAGCCAGAGCGCAGTCTTAAAGTGACATGTTTCCCAGTCAGACAAATCGGACTTAACCCAGGTGACAACTGTTCTACATTTTTAGCTTAAACTCCTTGTGAACAGCTCGAATTAACCCATTGGCTCATATAAACGCTTGAAAACATGGATGTGTGAGTGAACAACGATGTGTTGAAGCGTTGATGTTTATGTCAGAACTTCGGTAGAAGCCGGACAAACAAGAAGCTTGCAGTTTTGTCCTCGCTGTTCAACAACCAAAACACAGAGTAAGAAGAAATAAATGATCCATCTAGGAATATCAGAATAGCGGGGAAACGCATGGACCAACAAAACAACATGAATAGTGTTTTATAATAATTTTTTGTATAATATGGATTGAAGAGTACGAATGTTTTGTTTTGGGTCGGTAGCTTGTGCACAACGTGATGACAATTCTCAAAATGGCACCAGAAAAAACGCTTCACTCTGACTTTCAACTGTTATAATAAGCTTAAACACTGGAATATCGCTTGCTCTTTAAGCCAGGTTTAAGCCTGCTCTTTAAGCTTCCAGCATTTCGAAAAACGCAAACAATCTGCTCGAAAATGTCACTTGGGAATTTACCCCTATCTTACCGTTAAATTACCGGTAATTTAAGAGCAGTCGTCTATTTACCCATTCGAGCAGTTTTGACAGATCCTATTGCTTCCTCTATTATATTTTTTTTCGGCCAAATTGTTAATAAATAACACGAAATGTATTAGATTACAGTTTAATGGTTATCAAAGTGGGTTTATTATACAGGTGGGCTTTTCCCGAACAATTTGACAGCCGTGCTGTAGAAAAATGAAAACGAAATGACAGGAGGGGATTCGATAATTTGTTGATGTATGCGTGTGAATTCCAATGGCTTTGGTTTTGGTTTTGGTTGTCGTAGTATGGGTGAAAAACTACGTATCACAATCGAATCCCCTCCTGTTATTCGTTCGTCCAATATGGCCTTCCCGCCAAACCTATAAGCCCACCTAGTCCCTATACCCACTTTGAATGGTTATATTCAATCATTGTCCTTAACTTATACAAACGATTACAATGTATTTTTTTAGCAAACTCGACTTGAACAGCCGCTTCACCCGGAGAAGGTGGTGCACAAATAGCACTAATAAACGCAATTTCTCGGCTTTACAATTTACGGTTTTCAACACACCGCCGACTTCTTCTTCCACTAAAAGAACATTAAAACAATACTCTTTTAGTTCTATCTTACCGTAGCAATAGACGATGCGCAATCTCAGATTGCGCATATATTTATCCGTCAAACGGATCGGTTTGATATATTTATCGGTCATAAAATATTTATATATCTCGGACATATAATCTTGAAAATTTATGCGCAATCTTGCGCAATCTGAAATTGTATGGAAATGACGTTTATAGCTCAGGGTTGGCTACGCGAAATGACATATGTTTTGATAAAACGAATATATGCGCAATCTGAGATTGCGCATCGTGTATTAATACGGTTATATCTTTTTACTGACAACAAACGACAACACTTCGTACTGCTAAATTGCTCTTAAATTACTGTTATGACAGACACAAAACTGCTCGAATGGGTAAATTATCAGAAGTCTGTCTGACTGGGTTGTTGCGTTGTTAGTTTAGTTTGTTCGACAGTGGCTGACAGTGCACCTCAATATAATTTTGTGGATTTGCTCGAGTCGTATGTCATGTTTGATTGGTGGCAAGGCGCCGCCTTATTTAAAAGCTTTAAATAGGTTCTGTGTTTGTAGACAGGACAAATAAAACCAATTAATTGGATGTTTTGAAGAACGCAGTATCGAATCAGCAGCCAAGTTTTGACTAATATACGTCGTCTCATTTTGCTGAATAATATTATTTTTTCGAATAATTTTTAATACAAAGTCTAGTTGTTAAACCTGCATAGGCAAATTAACGATATCAACTTCGATAGCCATATAAT'
p83
sS'AGAP004704_2000bp'
p84
S'GGATCAACACCTTTCGATATCATCATCGTCCTTATGCTTGCCTGTAACTTCCGTAAACTTCAGCAAGACTTCCGGAGGAGATGTTGGTCAGAAAAGCAGTTGTGATTGAAAGTATGTGAGTTATTCTCATGCCAGCTCTGTTCAATAAGTATTGAAGGTTTCTACAGTAAAGCCGCTCAAATTGAGGTCAATTTGTTTGTCAGGATAGCCGAGCTGTAATATCCTGGAGATTTGACCCCTGATAAGACCATAGTGCTCAATATGCCGGATCAGAATATGACCATCACCGTGACAACTGTGCGATAATCTGAATGTCAAAATAAAGATCATTCGTTAACGGATCGTTGTACTGACAACACCTTCAGCCTTCCGTTTATTCTTCTGCCTTGCGATTTTGTGCCTCTGTTATAACTTGAACGTTTAATTCAAATTGGTAAAACTCGAGGTTTTACATATGTTACAATATTTTTTATTTGCCGGTTCAAATCCCTTTTTCATAAATATTCGTGAAAATGCAAACATTGATTTTGCTCCTATTTTCGGCAGGCTGTGCTCCTATTTTCGGCAGCGCGAATACGGGTCAGAAAATGTTTGTATCAATGTGAATATGTACAAAAAAATGTTTAAAGCATTTAACACTCTTACTTTCCTAAGATTGGTGTTAAAAAGCACTTTAATTATTAATTTTATGTTGCTTAGTTTGGCCCGTTTTGACAGCCATTTTGATGCGACGTTTAAACAAAGCAGCCATTGACAGTTTGATGGTTATAGCGTACGGTGCGAACTGGCTTACAAATATTTATTTTTCTCTTAAGTTAGTGCATTTTTTGTCATAAAATTGGTGATATTTGGTACAAGAAAGGTCATATTATGTGTCGACATACGCATTGTAGTGTTCTGATCAATTTTAAAAGGAATATTCAGCCAAATTCAAAGTGTGTTATTGTTCCGAGTTCTGGCAGGAGCCCACAACATTGAGCTGTCAAAAATGAACATTTACTGTGTACCTATTTTCGGCAGCACTTAAAGTGAAAAAATAACCTGTTTATCGTGATTTTAAAATTCCGAACAAGTTAGAATAAATTAAATAAGCATAAAATCTTTAATATACACCACTTTTTCATTGTTTTACTGTTCTGATTTTCTTAATCACAAAATCTGCCGAACGATTGGCTGACAGCAAAGCTGCCGAAAAAAAGCACAATTTATTTGATATTTTGGAAAATACGTAATGAAATGGTGTGAAACTTCGTATGTAAATATCAAATAAGTACAGTTTCACTGCAAAATTGTATTTTGTGAAATTTTTTACCGCATTTGTGCAGAATTTCACGTTTTTAGCTACCCTGCCGAAAATAAGTACACTGCCGAAAACTGGTACAGTTACCCTAGTAGTGTGGGTGAAAAACTACGTACAGTGGAGCGCCGTTTATCCGGGCTTCTCGGGACTTTACCTCGACCGGATAAGCGAATACCACGGATAATGAGTCAAATGATATATTTTATCACCAATTTCTGATTAGTTCTTTAAAAAATTCCTATTTTTTGATAAAAATAACCCAGTTTTTATTAACTTCATGTTTTTCCCATGAGAATATTTGAAATTTGCCATGAATTATAGTGTTTTTTGCTATGATAATGTGCTCTTATAACCGCTTGTTTAAATACCATCCTCACAACGCAATGTCACCTTTGTATTGAACTGTCATTTCTCAACAGCACGGATAAACGGAAAGCCGGATAAAAGGTACCCGGATAAACGGCGCTCCACTGTATCACAATCGAATCCCCTCCTGTCATTCGTTCGTCCAATATGGCCTTCCCGCCAAACCTATAAGCCCACCTAGTCCCTATACCCACATTGTTACGTCAAGTTACGAGTTGTCAAAATGCTCTAGATTCCACCACCTGATATTTTTAATCCACCTTGGGGTCGTGTAGCGAGGCCTTGATAATTTTAATTCACCTTGCGCAGACCATTCCCTAACTAGCTGTCAAAT'
p85
sS'AGAP004714_2000bp'
p86
S'AAACCGGTAAGGTTCTCGTTAAAGGGTATGCTAATAAAATGAAGAAGAATCAGGCCAAATTTACTGTATGATAAGGACTTATTCTGTGATATCTCAGAGTGTATGAAAAATATGTGTTTGTACTGGTCGTTTCGTATTAAACAGCGAATATCTACAAGATAAGATTAGTGTTTTAATTACCGTCGCAAACCACATTTTGTGACAATCCTCACTCCGAAGCCATCCTAAATTAATGGAACCAAAAATCATAATGGAAAAGATTTGTCTCTAGTACGGTCGTTGCTGCAGGGTAGCTTATCTCATATGCATATGTTGTCTATGAAAACGTTGGTAAATGGTTCATGCCGACTATGAAAGGTGTAGGAATAACCCTAGTGGGAGTTTCTAGTTCCTTAATAGAGGTAGTAATCCATTCCAGTTTCTTAGACAGAACCTTTAGAAAGGGATATTATATACCTAACTAATTGAAAGGCCCTGCCCAGCACTGAAACATCTTAAACATTTGTTCTCTGTTCATTCATAATGCTCAACACGGAACTGGAATGGATTTAAATGGAAACATAATAAAACTATTAGTATTAATTTTTGCCTAGTTCATATGGTCCAATTCTATGGGTAAGTTTCGTGTTACAGTAGTCAAGGCGTATATCTTTTATAGAGTTATGGAGTCACATGTACCGAAACTTGTATATGCAGGGCTGACTATTCTACTAGCTGAGGCTTCAGCTAAGGCAGTCGTATACACTAACTACTGCTCTTGTGACAAATAAGGAGAAGAATACAGACAAGACTACTTGGGTTGTTGTGGAAAACATTTACTCACACTTTACTTTTCACTGTTAAGCTAGACATGCCATCTAGTTTCTGTTTTGGATACTGGTCGAAATTTTGAATACGATTCCACAAATTTCATAACACTCAATTCCAAACGAAAATTTTATCGAAGATAATTTACCTAGCTCTTGCCCATGTGACTAACTAGTATTCTTTCCATTCTTTATTCTAACTTCAATTATACTTTATAGCCTAATCCTGATTTCATTCCCAGAGTATTTTTCCTCAAGGTTCAAATTTATTTTTTATGCTGGTTCTTATTTCCTAGCATTATATAGGTATTACTTCATTGTGAACCTTAATGAGTAGCCACTTCTCTTGTTTCGTTATCATTTGGCTAAAGTAAAAAAATAGTTTGCTATATCAAGTAATTGTAAACTTGGTTTGTGACTTTTAGGTTATCCATTGCAGGATAGCCAGTAATACGTATGGTGGGCTAGGTCCATACAAGGCTTGATCCCATGTCGAGCATATTCTAAGTGATGTGAGTTGATAACTGTGTCATGAAGCCGTGCCCATAAAAAATGTAAAAATGTAAATGTAATTGTAATGTAATGTGAATGTAAAAATAAGCATTTTGCAAAGTATTGAAATATTTGCAATTATTTGCATTTAAACGGCCACAAAAATAGTGGCTAGTACCGAGAAATCCATCTTAATTATTTTAACTACGTTCTAATGATTTTAAACATTTGCTTGTGTTATTAAAAATACATAAGTTTTTTTCTCCCATTCTAAACTTTTCAAACTTCATCTTAAAAAATGTGATTTTCAAATTCACATTCACTTTCACACTTGAAACATTTACGCAACATAACATTATTTCGCAGCTAAATATTTTTTTTTCTTTTTTTTTAAAGTAAATTACGGAATATAAAATGGTATTTACTAAACATTTCAATGAAAACACATTGAGTTTTTGACCTCTTTAACATATATCTAATCTATAACATAGATGTTATAACATTTAACAACCCATAGCTGCATGATACAAGAGGAAAACGATTTTAACAATATCTTATTTGATTAATTCAAAATTAGTGGTTTTAAATAATTCACGAAAAGTTCGATTATTTCCAAAACTTTTATAATTTATTTTGTTACTTTTAGGTATAGTAGCACTATAAAAGCTAACGCATTTAGATGAATAACAATGAAATATTGGC'
p87
sS'AGAP004742_2000bp'
p88
S'TTGAAATTAACGAGAAATGAACCACCGGTCAAAATAGCAGTCATGCGTTATGCTATTCCTCGCTCGGCGCTGGTGAGGCACTTCAAAAAACCCAATATCTTGTCACGACTTGGACAACTTTAATCCACAAAAAGAGACAACACTGATATGAAATCGATGAGAGGAATAGATGAGAGAAACTATGGGATTAAAAATATTAAAAAGTTCAATCTTCAATGGAAAAAATGGCTGCGCCTATTGACAAGTCCGTCAAATATGCGGTGATCGCAGAATTTACGCAGAGTAATTTCCTAAAGAGAAGTTTTAGACTGTTTTTTTTCTGTAAGCTGGTGCAATGTCAGCTGTTAGTGTCCGATGTTTCAATAGTGCTTTAGATTCTGCATTCTTCGAGATGTTAGAAGTGGCGCTTACAATTCCTAAATTAACGGCTGAATGAACCGCCGTTGCATTTGACCAAGAATTGGTATGTGCCAGGATGTGGAAATCAATGGGATCGGTTAAAATATTGTAAACCTCTTCTACTTCCAACGTTTTCTACAGGTCTCCATCTTAGCCTTGATGGTGTCCATCTTTCCCATATCAGGTGAAGTCCGTCTTACCCGAACATTTCAAAACTGCACGAAAAATCAAGTACTTATTTCATGAAAAAACATGAAAAGCGATAGATACATAAAAGTTTCATCACATTTTCTGATAAAATCCGAGTTTAAGATAATGTTTGCACATTTTCATGGTCGTTGTATTAATATTTTCCAGGATTTTTAACATTTTCCTTAAGGTGTCCGTATTTACCTACCTTCCCCTACGAACAACTCTAACAACAATAGTGCTGTGCTTCATGAACCTTTCGTAAAAAATCATTCATCTAAACCTTCAATGATGTGTGATTCGTGGTTCCAATCATGAGCTATGTGAAGATATAATCTTCACGGACCGAGTGGTCAACCGTTACCTAGCTTTTAGGAATCGTTCCGACGAGACACGGAAAAGAGTGCGAATTTACACTCAATGTCCAATATCAAGGTGATACAGCATAACACAACTGTGATGTGGATAATTTCAAAAGTGAATCAAACCGCTTACGTAGTAAAATGCAATGATGAGGCAGCAATGGGGGAAAATATTTAGATGTGCACCTTTAGAGATTGTGGATACTCTACAGATTCAATATAATTATGTATGAATATTTGTTCTGTACTCCACTATATTCATAAAAAAGATAAAATCATCCATGAACCTCAACACTCAAAATACAGATTTAAAGAATTACTATTACCTAGAGTTACACATCTCTACTAGCGAGGGTAGGCGCGTAGATTGATATACTGAATAACAAGAGACAGCCCTAGCGGTCAGAAAAAAAAAAATGTTATTTTAAAATAACATGATAATGCACAACATTATTTTGGTTTTATTTTGCTCAAGTAATGTGTAAATAAAAAACCCGGTTTTATGTTACAAAATTTAATTAACCTCAAATTAAAACGTATACAGAGTGTTTAATAACCCTGTGCATAGTGGGACATTTGGAGTAAAACCGGCGAAAAAGATTGTTTAACGATATCTCGGACTTCAGAATGTTACTTTACAATTGTACAAATTCACTTCTGACTATAAATTGTAAATGATTCCCAACCAATTCATCCCTTACCATCCCTTACGCAAAATTATAAAAGTAACGTTTACCATCATTTTTTAAACAATAATAAGTTAAAATGTTTGAGAAACAGCAAGTATAATCTGTTGTGGTAATTACCAGCTCACATTTATTTAAAACATTTTGACACTTTTTCGACCACTTTTTCGGCACACAATAGGTATGGGGATATAGAAGTACCATACCTATGTACACAAAAAATACATATTTTATTCAACATATTAACGTCTCACGTATAGCATTTTGGACTTTTACAGCAACAAAAGTCCAACGTGCTGCGATAGACATAACACACAAACACAACAGTACGCATGCCATGAAATCAGCTGCCATGCGGACATAT'
p89
sS'AGAP004756_393bp'
p90
S'GGTTAATTTTACACGGAAAAACACAATACACCGAAAGAAGGCTGAAACAATGTAAACTTGACAAGTACTCGTGACCAAAAGCTATGGACGTTTGCGCACTGCAATTGTCAGCTGCAACTTTTGCTCTCAAATTACTTAATTTATTTTATCTCATCTTTAGGTTTCTAAATCGAACGAAACATGTGCTCTACTTACTTAATTAATGCCTAACGTGCTTACGTTCATTTATGACAAATCATGTTCAATGACCGTTGCTGGATGCGATGAAGCAAATCATCTGCACACTGGGAAGATAGCATTAAATCAGTACGGCGTGTGTGTATAGCCCCAAAGCTAGCCCAATGACAGGTCAACGGAAGTAAACAAACAAAATTTTAAAGTGCTGATCTGCAA'
p91
sS'AGAP004710_2000bp'
p92
S'AAATGGCAACATGCCAAACGCTAAGAAGACACCTCCTCTATATTCCACCTTGCTTTAAACGACTGTTAAAATGTGTTCATTTATTCGCGATGCCGGCTAATGTTGTGGGCTCCTGCCGAAACTCGGAACAATAACACACCTTGGATTTGGCTGAATATTTCTTTAAAATAGATCAGAACACTACAATGCGTATATCGACACATAATATGACCTTTCTTGTACCAAATACAGCAATTATCCGCAGTACGCGATACTCGATATACGCGAATTCGCAGTACGCGATTCCTCTAAATTTGACAGCTCCATGTGTTTTTTGCAAATATTTTAATTCTTTGAAATATTTGATGGTTTTTTTGAATTTCCTTAATGTTATTAATGCATTTTGCATTAAATTTGGGCAAAAGATACCTGTTTTATAACAAAAAACTTCAATGCAAAACTCTGTGTCGATAGTTTTCAACCCTCAATCCGGTAGTGTAAACTATTTTTCCATAGGAATCCGCTATACGCGAAAACTCGAGATACGCTATTGCGCTCGGTCCCGTACGATAGCGTATATCAGATAATGACAGTCATTATCCGATACTAAAACAACAGTTTTAGAACAAAATCAGAGGCAACCGTGATTGTCGCGGGTTTGTGAAATTTTCACAGAAAGGCAACGCTCGCGTTTCGCGACATTACGATCAAAGTAAGCCATACATTCGTGCTAAAACAAGGATGGTTTGACAGATAGAAAGTGCCGCAAAAAATTGTCGCGCAAGATTTTTTGGGTCGTCTAGAAGCAGTGTAAGCCAGTTCGCACCGTACGCTATAACCATCAAACTGTCAATGGCTGCTCTGTTTAAACGTCGCATCAAAATGGCTGTCAAAACGGGCCAAAATAAGCAACATAAAATTAATAATTAAAGTGCTTTTTAACACCAATCTTAAGGCCGGGCTACATTGATCGTACTCGCAAGCGTAATTTTGATTTTCACTAGCGCATCTGGCGGCGGCTGACCGAAGCATTTTGCCAAACAATTTGGAGCCGCTCCAGAAAATACGTTAATTTTCCATGTTTTTTACTTAAATCGGAGGAGAAAAGTTTTGTAAAACGTAGATACACATGTCTTGCACGCATTGCATCCATTTTTGCAATGGAAAACGATGGAAAAACTACTAAATTTTGAGATCCGGCAGGTCCATTCCCTCGATGACCAAAAAAAGCTTTCACCAGCCGCCGCCAGATGCGCTAGTGAAAATCGAAATTACGCTTGCGAGTACGATCAATGTAGCCCGGCCTTTAGGAAAGTAAGAGTGTTAAATTGCTTTAAACATTTTTTGTACTTATTCACATTAATACAAACATTTTCTGACCCGTATTCACGCTGCCGAAAATAGGAACACAGCCTGCCGAAAATAGGAACAAACTGCCGAAAATAGGAGCAAAATCAATGTTTGCATTTTCACCAATATTTATGAAAAAGGGCTTTGAACCGGCAAATAAAAAAAATATTGTAACATACTATGATAGTTTATCAACCAGAATAACTACACTTTCAAGAAAAATAATGAAAAATATTGATGTGTGAGCAATTTTTGTGAAACTGCTGCACTAGCCTGCCGAAAACTGGTACAGTTACCCTACTAAAATATGATGGTTTATGTTCGGTCGAAAAATAGCTTAAATTTGGAACAAAAAACACAAAGTTTACAATTTGATGGCCTATATCTCAGTAAGTTTAAGATGAAAACGTGAAATATTTTGGTTTCAACTAAGTTTAAATATCTATTTAAAGAAAATGATTATGGTGTTAACCTGTGATGAAGTTGGTTTTTCGATTTTTATGCAGGTGTTTGCCCAATGTGCAATGGCGTATCTCGGGGACTACCTGTAGCTCGAAAATGGTTAATAGAAAGTGACCTCGTTTCTTCATAGACTTTGGGCTCGGTGCGATGCAAATGACCTGCTAAATACATACACCTTTGACTTAAGAATCTTGCGTGTTTTTGGTCGA'
p93
sS'AGAP004730_752bp'
p94
S'TGTATTTAACCATACTGTTGAGGCTGTACGATTCGCATGCTTTGCAGCTGTTATGTGGTGTTAACTTTTATTAAATAAAGAATATTTACGTTTCTAAGCTATACTCGGTTTGTTTCGTTCACTGTCAGAAGAAGTGTGTGTTGTGACGGTGAGTGTTCATATGAACAGTTTTAAATTTTTACACATGTTCTTAAAACTAATCATCGGATAACAATAATTTGAGAGCTGAGAACTAAAAACTTGTTGACTTTTGACTTTAAAAAGTATGGTCTATTTATTAGCCCTTTCTTTGACACTTTGAGCGCAACGGACGCTAGAAGAAAACAAATATGTAGCTCATTTTGAAGTCGCAAGTTAATGTAGGAGTGCATTAATAAAACCTCAACTTATTTTTTGCTGCTGTATTTTTTATTTCGAATGCAACTAATGTGATGGAATGTCTATATGTTTACTTTTTAGACGAAAGCCTTTTACGAAATAGAGATGAAATATTACTCATCACAAATAATTAATTAATGCATTTAATAGTTGATCTGCATAAGACAATCATCGTAAGGCGAGAGAAAACGACAATCACTATCGTTACGGAGTGTTTCTTTTACTTGAGCAAATCTTATAAGCATAACGACCAACTTTAACTAATTTTACTAGTCACATCAATGTTGCGGCCAACATGACTATTACAATTTAAGAAGCTTTCCTATTTTCACTCCCTATTGATCAATCGTGTGTACAGCTGGATGCTTTGTAAC'
p95
sS'AGAP004685_2000bp'
p96
S'NNNNNNNNNNNNNNNNNNNNNNNNNNNNNNNNNNNNNNNNNNNNNNNNNNNNNNNNNNNNNNNNNNNNNNNNNNNNNNNNNNNNNNNNNNNNNNNNNNNNNNNNNNNNNNNNNNNNNNNNNNNNNNNNNNNNNNNNNNNNNNNNNNNNNNNNNNNNNNNNNNNNNNNNNNNNNNNNNNNNNNNNNNNNNNNNNNNNNNNNNNNNNNNNNNNNNNNNNNNNNNNNNNNNTGGCCGTTCGCTTACATATTATTGTGAAATTATGATAGCTTGAAAAATAATACCAAAGTCTATATAAAACAAAGGTCGATGCATAGCTCGAATTGGTCCACCATTTTGAAAACTTGGTTTTGACAGTTAAGCAGCGGTCTAACCGTATTAATACACGATGCGCAATCTCAGATTGCGCATATATTCGTTTTATCAAAACATATGTCATTTCGCGTAGCCAACCCTGAGCTATAAACGTCATTTCCATACATTTTCAGATTGCGCCAAGATTGCGCATAAATTTTCAAGATTATATGTCATCGTCTATTGCTACGGTAATGTTGTTGCGCACCAAAGTGGGTAGAAAGGAGGTGTCGTCATGTAGAACAATTGGGCATCGAGGCTTTAGAAAAAAAGCACAAAACCAGGATCGACGGCAGTTGTCAAATGCGACGAATGTTGCTGGTATTTGGATATGATAAATGAATTGTTTTCGTTTAATAAACATTTGTTTAGCACTAAAAATTTGTATTTTCATCCACACTCTATAAATTTGCATTTTACACATAATAATGCAGCTACTGCCTGTAAACAAATATCGATGGCTGTTGTCAAACTGAATCTCAAAATGGCAACATGCCAAACGCAAAGAAGACACCTCCTCTATATTCCACCTTGGATGAAATTATTGATGCTTTTCATCCAGCTGTCAAAACTTTCCCACGTTTTTTTTCAAAGTCTTTTACCCACGGACCGTAAAGATATCAGGTCAAGTTATAAGCCCGTTTTGACAGCTAGGTGGAAGAAGAAAACTGACAGTTAGTTTTCCGCGTTTGGCGAACGTTTCAAGTTCTCTAAGGAAGATTTCCATTTTAAATCACGGGCAGTGTTCTATTAAACTAAAATATTCACCCAAATTGATCTCCACCAAATATTGACCATGCAAAACTTAAACAATCCATCAATACATATACAAGCGGAAAACCATCTGTCAAAATCGGTGCCCAGGGGGGATTGCCGCTATGACTACACCTCATTATACAGGCGTCCCCCGAGTTACGACCCCCTCGAGTTACGACGATTCGCAGATACGACGATTTTGATTTTGACAGTTAAAAGTTGTAATTGACAAGAAATTGATGTATTTTTTTTTTAATTTCTGGGCTGATAACCGTTAGACATACATTTCCAAAGATTCCACAACTACCCTATCTTGAATATCTATATTGTGTACGGTTTTTAAAATATAATTATTACATTATCGAACATTATTTTAAATAAAATACACGATTAAATAAAATCCAACTCTTTAACTTCGGTTATAAATTTTATGTTCATAGATATTCGACATACGACTTTTTCGACTTACGCCTTGCTTTGGGACATTTTTTCGGTCCCAAATACAGTCGTATCTCTGGGGACACCTGTAAATTCCACCTTGCTTTTACCGTATTAACGGTGGTAGCAACGCTTTTTCGCATGCGATTTTATCGGACGGCCTGTCAATTTNNNNNNNNNNNNNNNNNNNNNNNNNNNNNNNNNNNNNNNNNNNNNNNNNNNNNNNNNNCGACGAAATCGCACGTCCGACGTTATCTGTCAAATCCCATAGAAATCTCGTCCGATAAAAGCGCATCCGATGAGCGTTGCCACCGCCCTAAAGTAAGTCCGATATGTCTGACTGGGTAGATTTCACCACCCGATCTCTTTAATTCACCTTGGTTCCTACACAGTCCCTGGCTCAGGCGTATTAATTTTGGCGGACAATTTATTATGTTCAGTGGCGGGATAATTTA'
p97
sS'AGAP004754_725bp'
p98
S'AAAGTATTTTTTTTTATTCATACACTAGCACGACAAGCAAAAATAGATATATATTTTTTATTTTTATGTGATGTCCGCTCATAAATGTGAGAGTTTTGATGCTTGGAATCTATTCATTACCTGTTGCGTTTGCCTATTCAAGAAGTGTAGTTTTGGTAGTGTTGTTTAAGAATTGTTTTGGCCCTGTAACCAATTATACTTCTTCTGAACCACATTACATACAAAAATGTTTTTCTCATACCGAACAAATCACTAGAACGGATAAACTCGATATGCGAGAGTCTCCTATATCTTCCTTTTTTATTTGTTTTTTCTGAGTCACATGTAAAGAAAATGGAATGATGTGAAAAATGTCTATAAACTCAAAAATTAGTTCATATCCACGCAAACTAACGAAGTAATAATAACAAAAATACATTTCGGAAGGTCTTATCCACCCGTAGTTAAGTCCGAAGGTGGCAATAAACAGGGACAGGGACAGAGTACAGGTCCGAAGCCGTTCCTTCTTAATAAAAAAATGCATGATACGAAATGTGCATTTAAGGTCGATTTCTGCGGTCATGTGTTTTTTTCTGGTATAGCCCGTACCTGTAGATTTAAAGTCGTCACAAATGCATTTGTCCCATTTCTTTTGCCATACACTGTATGTCATTCATGCGCATTACGTTACTGAAGGGATGCACAATGTAAACAAACAAGTATGTTATCATTCCATTCTGTAGCAA'
p99
sS'AGAP004677_2000bp'
p100
S'ATATTTTTGCACGAGGGCGTAAAATACGGACGTTTACGGATCCAACGTTCGCGGTGGCTGGAGTTGATGGACGCACATGGTATATGGCACAGGACAAGCGTCAGTGAAGGTGGCAAGCTCAGAAAGGATTCAAACCTCGTCCTCCAGTTCATACGATTTTGTTTCAACTAGACTTGTTCAGCCTACAAACCGTTTTACACTTTACCCGGATTGTTTGAATAGACCTACAGTCAGTACTGTCTAAGGCCTGGTGTGGATTCTTCACTAGATGGCCAAATAAGCCAAATTTACTATTTTATTCATTCCGCAACACAACACCTCTAAATGTAAACAAAAGTGTGATTGACAGATAGGCAAAATCAATGGCTACTCGAATCGGAAAGAGTTATCCACCGGTGGAGAAATTATCCACCGGTGGAGAAAATTATCCACCGGTGGAAAATAAATTCCACTGGTGGATTCGAGCAAATTAACCGATCGGATAAATTTTATCGACTTTCGTTCGCGATGAGGCCCATTCATTGATATGATTTTAGGCATTTGACATCTGAAATAAAATCGCATGCGGCGATGCGGCAAAATCAAATGATTTTGATTTGCCGCATCGTGGCATGCGGCAGATTCGCAAGTGCTGTCATTAACGTCAAATCCCATACAATCGCTTGCGGCAAAATCGCATGCGGCGAATTTCTGACCGCTGCCTAAGTTGGCAACCGGCATACCCGGGTATTCCACACGTTTTTATGCAAAAAATTAACGATTTTCATAGGTAAACAATGCTTTCTATATTTTAATGCTGTAAGCAAGTAATGCCATATATTATCTTCTATTTCATTTATTCATTAAGTTTTTTTTTCATTTTATTATAAAACTAACGGTCAAATTGAAATTTGTAATCGCTTGAATTTGACTCGAAAATAAGCACAATACGAAAAGAGGAAGAAGAGAAACGTCATTCTCCATACAAAATGTATGGAATACCCGGGTATGCTGGTTGCCAACTTACGTGGTAAAGTTAAAAAAAAAAACAAAATAAAATACTTACAGGCTGTTTAAAATTACAACTTATGCACCAAAAAATCCTAAATTAAAAGTTGGGAGGCTACGGAAAATTTCAGGTCAATAAAAGCAATGAATCAAAAGTTATAGCGGTTCAAAGTTGAAAAAAATACCCGGGTATCCGGTTGCCAACTTAAAGGTTACCCAAGTGACATTTGCTCGAAATTGTTTTCCCATATCTGCTCGATTAGTACTCGATACGCTTGAAATTGTGGATTTGTGTCTGATCAAGTGTGTTGAAAGCGCTAAAATTTGGTGAGTTCGTAAATTAGACTTGCTTCTATCGATTGACGATGCCGTCGAGCTCATTTTACACACATAGCTTCGATTTTTAATGAAAAACAAAAGCTAATTTTGTGTGACGTTATTTTATAAAAAATCAATATTATTTAAGTATAAAATGGCTACCTGACCAATTATAACGATAGAAAACATCATTTTCGAGCGAATCTAGAAGAAAACAACGAAAAAGCCACATCACAGTTGATTTTAAAGGCCTTTTTCTAAATTCCCTTAAACTGGTGCAGTTTAAGGGAAGTTTAAGGCTCCAGTTTAAGGGAATTTGCTCGAATTTCGGATTATTCGTGCTCGAAAATGTCAAATGGGTAATACGGACGTCACACGAAGCGTAAACTTTGGCGTAAACTGGATTTCAGCCATACAACCCTGAAATCTTTTGACAGGAAGTTTACGCTCTCCCATACAAATCAAGCGTAAACTTTTTGAGTTTACGCCTCGTGTGACGTCCGTATAATACGGTAAGGCTCCAGTTTAAGGGAAATTGCTCGAATTTTTCCGATTATTCGTGCTCGAAAATGTCAATTGGGTGTTGTCAAACTGAATCTCAAAATGGCAACATGTCAAACGCTAAGAAGACACCTCTTCTATATTCCACCTTGATTTGAACGGTAACATTCAGTAGTCCGTGGCTTTCGGATTAT'
p101
sS'AGAP004729_2000bp'
p102
S'GTGGGTATCGAACATCACAGACAAAATCAACTGAGGCGGCGCTCTGGGACCAATCGAACGAGACAAACAAACACGACTCTGTTCGATAGGTGCTCTGTCAGCTGTTCGATGTCTTATAGACCTGTCATGATGCACTGCAATACGCCTATCTTATCATCTCGAAAATGAAGCATTTTCATAGTTTAAATGAACATCCATCTGCAGGGGGAAGATTCAACAAATAATAAACTAGTTATTAATATCAAAAATAACATAAAAATCATTCAAATTTATTATTGAAAAAAGTAAACAAACGTCCATGCCAAAACACATACAGTGCATACACATGCATTGTGTACACGTAATAGTTTTATACGTTTCAAACCTGTATATTTGATGTTATAATTGATTGTGAAGCATTGCTAATATTATTGATAGCTATTTTAAATATTTTGCACGCAATTTTAAGAAGAAAAAGAGACAAACTACGTAAACAAACTTAAAAATGCCCCGAATTGAATTCTATCTACTGTAGCTGTGAAGCGTTTGACAGCCAAGGTACTCACAACAGCACAGGTGGGTATCGAACATCACAGACAGAATCAACTGACATGTTCGACTCGAGGTTTGTCTTGTTTGTTTGTTTGTGTCTGACAGTGCACCTCCATATGATTATATGGGTTTGTTCGTGTCGGATGTCGTGTTCGATTGCAGCTAGAGCGCCGCCTTACTTGCTTCAGTGCTGGAGGTTTCCGTTGAAGTTTAGTATTTAAACAATCGTATCGCCGTTCTAGTTCTAGCGATGCATAACTTCAATGCGAAACCATACAACAGTACAGAGAAAATGAGAAAGCTCTCCTCCAAGCGATGAAGCTCAACTGGTTGGGGTATCCCACCAACAGAGAGCGCCACCAGCTTTTTCGCTATTTTTAGAATGCATGAGTCGTTTGCCGTCTGCTAAACGAAGTCTTTCTATATTCCGTTTAGGTAGAGAGCTTGCGTCGTTTAGAAGCCGTTTAGTTGTCGTTTAGTGGATTTGTGGCACTTGGGAAATCTCACTTGCTTCAGTGCTGGTGGTTTCTATTGGAGTTTAAAACTTAAACAATTGTATCGCCGTTTTATTTCTAGCGATGTATATCTTCAATGCGAAACCGTACAATACTACAAGGAGAAGGACAAAGCTCTCAAAGCGAGGAAAGCGGGCTAGTTTGGGTATCCCACCAACAGATGTATGTCGCCACCAGTTTTTTTTGCTATTTTTAGAAAACATCAGTCGTTCACCGTCTGCTAAACGAAGTCTTTCTATATTCCGTTTAGGTAGAGAGCTTGAGTCGTTTAGAACCCGTTTAGTGGTCGTTTGGTGGGTTTGTGGCACTTGGGACCCAAAAAAAAAAACTCGAATTGTTAGGCGGGACACTGGAATAAATAAAAAAAAAAAAACAAATAAACAAACCAGTGAAGCTATGGAGCTTTTGTTTTTTTTTCTATGGATGTTTGATTTTCCAGTTGTTTAAGCTTAATGTGTGGCGCTTGGGTTAGACCTGTTTTGCTGTGAAAATGTAGGTTTAACGTTGTTATGTAGGTTTTAATAACACGTTTTTTTTAACGTTTTGTTTACTATTTTGAAAAGCTAAACCATCTACTTAAATGGTAAAATTGCGAGTAGAACCAATCTTTAAAGTGTTTTAGAAAAAACATTAGTTTCCAATTTCCATCAATATATTGCATCGATAACGGATTACACATGTAAAATATATAAGCCTACAATGTCGCTTGCTACCCGGATGCGTCGTTCAGTTAAAAATACTCAACCAGTAAGATTATATTTTAGGACTAAAATTGGGAGTGACGAATCAAAACGATTTATTTTACATTTAACAAAACGTGTTTTTGAGAAACGAGATATTTTGAAATGAAATGTGACATTTAAACTTATCGTTTCTCGTTGTCATTTTGCTTGACGTCAAAGGATATGTCAAAACCGTTTCACGACGCTGCCATGTTTGCATATTTTCGTCCGA'
p103
sS'AGAP004695_2000bp'
p104
S'AATAATTTTATTGAGTCATTATTTTATAGCTATCAAAAGCTGTATAGCTGTATCATTGACAGCATCCACTGAACAAATGTATCATGCCTCCAAATTGGATATCACATTAGATTTCAAACATTTTATTGGTAGAAGTTACTCTCCATACTCAATCTAACATTATGTGCTATCATACGATACGATTTTTTGAGCACGAATCGTTTCTAACTTCGAATCACTGCTGAAAAAAAGTATTGAAAGATTGCTAGTAACATATCCGTAATTATCAGTAACAAGCGGATGTTTTTGCTTCTCGATTTCACCTTAGTGATTCCTACAAAGTGATTTAAGCAGAAATCGTTGTTTATGATAATTGCAAACCTGATATGTGATATTAATATATAAGTTGACAGTTGACAGTTGTCTGCTAAGCGCACGTGCTCACTTCACTCTTCGTAAAAAAAAATATTTTATTGTGTTATCTAAATTTATTTTTGATTTTCTTCTGGTTTATCGTGACCATTAACTGTATCCTGCGATCCTGACACCATTTGCTCCTGTGATCCGTTCCTGTTACTGGTGCAAATCTACGGATATTTCCCGCGTCCCTGGCGTATACATCCAATGCGCAGCTATAATCGAAGAAGTTTGTTATGCCTGTTCGGTGCCACTTGAATCACTTGTTGATGGTATCTCATGCTCATACTGTGATGGCCTTCACCACATTACGTGCACTAATTTGCCCTTGACGGTGATCGAAGAGGTAAGACGGACAGCCTCTCTTCATTGGAGTTGCACCGGGTGTACGAGCGCGATCGCTAACCCAGATAGTAAGGCAATCAAGGGAACGGGTAATGCAGGTTGGTTTTCAGGCGGCGCTCTTTGCCGCTGTTGAGGTAATGAAAACTACCCTAGTTCCGCCGGTGGTGTATGAGATTCGCGAGGGCTTTGCCGCAATAGGTGCGGTACACCAAGCTCTCAGCTTGTGCTCCAATGCATTGCCCTTCCGAGTGGTAAGCGCAGAAGATTGTTCCGAGACGTTGTTGCATGCACGGAAGCCATTGTTGTTAATAATGTTCCTGCACCAGCTATCACAAACACTAGTAATACTTACCAAAACAGTCATCCTTCACTACCACCAATAATTACTGGAACCGATAACACCACCACATTGATAGCAACTAGCCCTGATTATATATGGCTGCACTTGTAGAAGCTTTCCACATCCGTCACCGTGGAACAGGTAGCGGAGATGGTAAAATCGCAGCTAAACATCGTCGATGTCCTCGCTTTTTGTTTATTGAAAGCGGGAACATCTGTTAGTTCTGTTAGTGCATTGACGTTAGTCGTTCGGAGTCGTTCGGAGTCGCCCGGAGTCGGAGTCGTCCGGAGTCGTTCGGAGTCGTTCGGAGTCGATCGGAGTCGTTCGGAGTCGTTCGGAGTCGTTCGGAGTCGCCCGGAGTCGGAGTCGTCCGGAGTCGTTCGGAGTCGTTCGGAGTCGATCGGAGTCGTTCGGAGTCGGAGTCGTTCGGAGTCGTTCGGAGTCGGAGTCGTTCGGAGTCGTTCGGAGTCGTTCGGAGTCGTTCGGAATCGTTCGGAGTCGTTCAGAGTCGTCCGGAGTCGTTCGGAGTCGGAGTCGTTCGGAGTCGTCCCGAGTCGTTCGAAGTCGTTCGGAGTCGTCGACTCCGGACGACTCCGGTCGACTCCGGACGACTCCGAACGACTCCGACTCCGGTCGGATCTAGTGGTTCCATTTTGCTTGAGTCGGAATCGAACTAACAATAGTCGGAGTCGGATCGGAGTCGTGGGTGCGCTCCATACAGCACATCACTACACCAAACATCAATAGAATGCACAGTTCAAGCCAGAAGCATTTCATTCAATATTTCAACAACACGCTCGTACGCTGACGATCTCATTCCCACCCACACACGGTCACCACGGTCCCTCGTATTTAACTGTATACTATCAGAATGTGCGTGGTTTGCGATCCAAAACTGATGAATTCCGCTTAGCAGTAT'
p105
sS'AGAP004699_2000bp'
p106
S'CCTATTGAACTGATATAATAGTCGTTACTAGAAACATGCTTTATTTTTTATAAATTAAAATCTTGTTAGTTTCTCGCGTAGAAGTGTAGAATGCAGTAAATCTTGCAAATAGATCATCGCATGGTAAAAGGATGATAGTAAAAACAAATTAAACAAGTACGACAAAATGATAGGAATTTTGTCATGAAAAATCCAAGCGTTTGATAAAACTACTTACTATTGGTTTATCTTTACTTAATTTGTGTAGCACGCATGAATGATAGCTTATTTGAATAAAATCTCATTATACAATTTTTTAAACGAGATAAAACTAGTTGGTTTACCGATTGAATGCACATGACTGGAACTTTATTCTATCCATAATTCAGGTATTCCCCGATTTATGCTATTAATACGGACCCGAGGCAATAGCGTATCTGAAATATTAGCAAAAGTCAAATTTCGAGATTTTCAGTCAAATTATAGCTAGTTAACATATCATTTTGCTTGAAATGGTAGAGCGTTTCTGTATATTCCGAGACAGCAGGGGAGAGATAGTTGTGAGAAAATTGGCGAATGATTTCTCACACCAGTGGGTGTAGAAGCTCCGAAAAGCGCCGAGATGAAACTTCTGGAAACATGATGAAAAAAATCGATTTTTGCCGCTAAAATGAAGCCAAAAAAGTATGTTTTTTTTGCTTTTCTATGAATATTTCTCTACTTATTACACTACAAAAAGACTAACTACAATTGATCGTTCACTATAAACTGTAAATGAAAATATTTTCTCAGCTCCATCGTTCTTTGCATGACGAGGAGAATTCTCTCACCGAAAATGCTGTCAGTCGCTGTCAAAGCATGCTGTCAATTATTTTCTCAGGTGGTTTCTCGGTGTGTGTAGAAACACTCAAAAGGATACATTTGTCATTTAACATTTGATGTGTCAAAACAGTACATTACCGTATTAACCGTTGTGTCAATGACCAAATTTACACCTTCATCTCTACGACCGCCCAAGCGAAATTTTTCGGGATAAAGGGCGGTGGCAACGCTTTTTCGCATGCGATTTTATCGGATGGCCTGTCAAATTTTTATATAGGATTTGACAGATAACGTCGGACGACGAAATCGCACGTCCGACGTTATCTGTCAATTCCCATATAAATCTCGTCCGATAAAATCGCATCCGATGAGCGTTGCCACGGGCCTGACACGGGCCTAATGAACATCCCAAGTGCCACAAATCCACTAAACGACCACTAAACGAATGAATGGTCGTGTGGTCAGATACGTGGGTACCGACACCAACGACCATTACTCAAATCTCACTTGCTTCAGTGCTGGTGGTTTCCCTTGGAGTTTAGTATTTAAACAACCCAAGGGCCACAGATTAAGCTTAAACGACTGGAAAATTGAATATCCATAGAAAAAAATGAAAGCTCCACAGCTTCATTGGTTTGATCTATAGATGGCGTATTACAACTCATCATTATCTTGCTATCCTTTTCTTGCAATGTGTTTCGACAAGTTTTATCTTATCATGACCTATATAGCCTTCTAACTTTCTGAGCAAAAATCTATATAAATGGTCGTGTGGTCAGATACGTGGGTATCAACACCAACAACCATTACTCAAATCTCACTTGCTTCAGTGTTGGTGGTTTCCGTTGGAGTTTAGTATTTAAACAATCGTATCGCCGTTCTAGTTCTAGCGAGGCATAACTTCAATGCAAAACCATACAACAGTACAGAGGAAATGAGAAAGCTCTCCTCCAAGCGATGAAGCTCAGCTGGTTGGGGTATCCCACCAACAGATAGCGCTACCATCTTTTTTGCTATTTTTAGAATGCATGAGTCGCTTGCCGTCTGCTAAACGAAGTCTTTCTATATTCCGTTTAGGTAGAGTGCTTGAGTCGTTTAGAAGCCGTTTAGTGGTCGTTTAGTGGATTTGTGGCACTTGGGTAATTGATCGATCGCTATAAACTGCCAATTCAATTTTTTCTCAGCTCCATCGTTCTTTG'
p107
sS'AGAP004753_1268bp'
p108
S'TTTTATTTTTTAGGCACAAAATGTTTGCTGCGTCCTTGTTGCTTTCTCATAGGGAACTATTCCATAAACATCAACAAAGGCACACTGGGAACGCTTAGGCCATCGCCGTAGCCAAGATGTATATAATACAATGTACACTACGATGTGTAGTCAGGTATTAATGGATTACAGTCCGAACTCACTTAACGCGTGGCCATGGAGGTGGCAAAATGTTGAAAAATATTTCAATTTTATCAATATTGCTTGTCAACTGCAAAAAAGAGCTTTGCTCGTGGCTGCACCAAAAATATACACAAGAACGAAAACAGCTCAAACATCCGAATATCATCGATATTTTGTTTAGGAAGTACTAAATAGGTACATTAATCAATTAGAAACATGCATTTTAGCACTATTATCATAGCAATGGGACACAGCTGCGCCAAATAGCTGTTTATTTACAATTTTTCGCAAACGTCAAATTTTGTCAACTTTCGTCAACTTTATTTCCTGGCTGCTCCAGGCTACGAAAATTTGACAAAAGCTCAAAAAAGTAACAAAGCTCACGTTTTGAACAAATTTTTTGTCACTCCCATGGCACCTACTGGTTGAACTTCGATTCCCTACCTACTATTCAATATATAAAGTATATTTTTAGTTGGCATGGTTTTCGATACAAAAAATATTTGAAATTTTTCTCGACAGGCCATGAGATTTTTGTGAATTTAAAAAAAAACTTGTTTTTCCATACAAAAGCATTCTTTTTTAATTGAACTTTCAGCCAACTATCAAGCAAAATCCAAACCGTTTGATAGTTGGCATCAATCGAATGACGTTTTGACGTGTTTTCTTATTTTTGTCACGGTTCATGTGTTAATTGTTACATTGCATATATTTTCATGTTCTTCAAAGTAAGCTTATGATTTAAAAAAATGAAATATATTAATCTTTTTAATCATAGTTTACTACTTTTGACCGAGCTCTTTTCATCTCTTGAATTTGATTGTCGAAAGTACGGATTATCGAGCGTGCGGATTAAAAAGGTGCGGATTACCGAGCGTATACTGTACTTCCTTTTAACCGCGTAACTCGGGAACATACTGTAGTATGACAATGCGTCTTTCTCAACATTCCCCAAGGTATTTTTAACTATTTTTATTTATTGCCTATAGACATCTTGAATCTGTCAATCATTAGCGCTGTCAACGGTTAACGGATTTGGTTCGAACTTGTTTGTTTTGTTCCCAAGCCTGTTTGGTCTTCGTTGTGTAGAAATTGTCTTTACGCTA'
p109
sS'AGAP004769_4544bp'
p110
S'AACTGGCATTAAGTCTAATTTTTAACCTAATTAATAATAATAATTAATAAAAGAAAAACAAACATCAAGACACACACTCAACATGCGCCGGCGAACAGGAGAGTGAAGCGCATAAACGGACGAGAAGACGATGCGCCGGCCACATGCAGCAAAACAATAAACACACAAAGCTTAGAATTATAGCCTACTTGATGGTGCAAAATCTTAGGCTGTTTCCCCCACTCGATATATCCTGTGTGGCAACTGTACAGAACGAACGATCCTCCTCCATCTCCAGAAGAATGCTCCATATTCACTGTGAATCTGTTCGAAGCTAGAGAGCGATCGATCGAACGAGTCTTCTAGGCTCAAGCTATTGCTATACATTTCTGTCTTTTGTTTTTACCTACGAAAAGCAGATTTTACAAGGTTCCTCCTGGAATGCGGCAAACCCAACGCCCAAATGAATGCCGTTTTGGGATTTACAATGGATTATTAAGGAGGATGGGAATGGGACAGGATGGTTACTGCACTGCGCACAGGGTAATTAATATAGGACTGAGGCAGGAACAGGAACCACTTGTGTATGCGTGCGTATGTGTGTGTGCGTGTGTATTTGTTGGGCATTTTGACCTTATCCCGGCAACGGTGGCAAATAGGATGGATGGGAATTAGTCTTGCGGATGTGTGGAAAATTATCAAATTGTCTGCATCAGAATCGAATGGAAGCAACCAAATTTCGCGCATACAATAAACAGGGGGAAATCTAAAGAAGTGAAATAAAATATTACATGTAACAGATAATAATTATTAGTAAAACTAACAACAACAGCTATGTGTATATGTGGGATGTTAAAGTGTGCGATAAATAGCAACAAACGGCAAAACAATTACACAATGCAGCGAAAGACACAACAACAAAACACACACACACCAACCTAAACCAAACCCCGTAAATCCCTACCGAAACCTCCAGTTTTTCACCTCAATATGATAGCAAATGTGGTATAGTGTGTATACATTTAGATATATGCTGTCAGAGCGAACACAATCCTACGGGATTTAGTACTCGCGTGGTGTATTCGCATGGTTCTAAGAAGTAGCAACCCCGCCGCCGGGTGGTAGCAGATGGAGGGAAAAAACTGGGAAACCCGTTCTTGCAGGGAAAGCAAAAAGGGGAAAGGAAACAACGGATGTAATATACACAAGTCACACGGAAGGTTCTCAAATTTTTACATGATATTTTATGAACAACACACACACACACACACTAAAAAAACAGGAATGAGACTGCAAGTGCACCAGAAAAGGCTGGGTAGAAAAATTAACATTTCATTAGGAAGAAACCGACACGCTACAAACAAACAAACAAACAAGCATAACAATTCTCTATCTCTCACACAACACACAACACACCGAAGCACGCGAAGCACATGAAGCAACGTTCCGGAGTCGCTTTGGAGAAACGGAGAAGCGAATCAATTGATGTACTATAGTTAAACACAAAACAAGGCAGCGCCGTAACCAAACGATCGATCTCTCAGATTTAATAATTCGGGATGCGAGAATGCATCTCTCATGTGGCATGATTGCACATGAAAACGGGAACTATACATCCGTAATAATGTTGTCTGCCAGTGTGGGATGGGATGACGCAAAAGGCATCGCATCGGGAAACGCAAGATCAACCGTACGTATAATGAGGGTAGAACTTTAGTAACGGCGGAGAGGTTTATGTTTGTTTGTTTTCCTTTGTTTTTTTTTTTGTTTTTCGTTTATTGCTGCTGATCGATATAGGCAAACATTCACAACACGCTGTTGCTCCTTCGCGTGTTTATGTATGCATGTGTGTATGTGTGTGTGTCTGTGTGTGCGCGTATGTTTGTGTGTGTGTGTCGCACGCGCAGGCATTCACTGTCGCTTTAGTCGCTGCTTAATAAGGTGTAATCTTTGTAGAAGTTTTTTTATGTAACGAAAATATGTGCCATTTCACGATGGCCTGGTACACAGGATGCTTCCTTCCTTTGTCACTCCTTTGTCTGTCACACACTAACTTTTCTAATTGCGTTGTTCTTTCGCATATTCACCTTTTTGATTCGAAATCCGGTCCCGACTGAAGTGTGCAGGTGGGGCAGATGTCGTCGGGGTCGGGGGTAGGATGTATGCAAATACACTAGCACGCAAAATTGCTTTTTTTTTATTCCTAGCAGATGATCGGCTCCTGATTTGTAATACACTTACCCACCCCCTCTCCGACAACATTCTAGTAGTGAAAGTGGAGTGGTGGAGCCGCATTGAACGGCACTTAGACGTTGCCAATGTGATAGCTACGGAGACGTGAACCCGATGCAAAACCTAAATTGATTGCAGCAATTACCCTACCCACCACTCCAAAGGATAAACATGGAATTGTGTTTGTAGCAGGCGGTGTGCCGAACATTTAGCAAAGAGTTAGAAAAACGGTGTTAAACATTAAGAAATCAACATCAAAGCAGCCTAAACAGGTGGAGATGATGGAAGGTGACGATGATGGTGATGTTGATGATGATGATGATGAGAGGTGTGTGTAGCGCGCGAACGTTCCGAAAGGACGATGCGCATCTCCTTAGTTTCGCCTCCTGGTTTTCTTTACCAAGGTATGTACACCAAAAAGCAAGAAGTAAAACAATTGGAGATCAAATGAAGCATTAATCTACACATTAAGAACGAACACGCGTGTTTCACTGGCAGTGCGACAGATCGGTGATTGGTGCACGAATGAGCAAACATTTGAGAGCGAGAGAGGTAAAGCAAGGTGAACATTCATAAATAGTAACACATGCATACATATTATTAGGCGTAATTTAGGAAGGAGAAGATCACCTCATGGCATATAATAGTAGCGCGAGTTCTTCGCGAGAAGAATCCGAACGAAGGAAAGCTAGGAATGTAATGTGAAAGGATCGATCAATAAATAAGAAACAGACTATTTTTATCGTATCAAATTTTGTATACAAAGGGGAAGGAATGTAAAAAGGAAACAAAAACCATGTAGCAAGCATACATATAAAACGAAGGAAAAAAGAAAAGAAGGAAAGAAGAAACCACCACATGTGGATTACAGGAGCTGTGTGTGGGAGAGGGTAAATGGCAATAGGACAATTACCTACAACTACCAGGTGTATCCCGCAGTGAAAGGAGCAGCAAAATGGTTTGCGGAACGGATGGAGGAAAGCCCAATTTTGAAGAAACGCGGAACGGATAGAAAATGGTGCGCTAAGTTACAATAAAGTAAAATGTACGTGAACTGTACCATTGAACGATTTTCTTACTTTATGCTGGCCCGAAAATCGAACGAAAATGATCCAAACGGCTAGGTCGATCCGGTTAGTAAACATTATCAAAGGTGGTAAGTACGTATCACATCCCATCACAGCATTTTAAACACTGAATCGTGCTTGATTTTTGCTTTGATTGATTGTGGTTGCGGATAACTCTGTTACTTCGATAAGAGGATACTGTTGAAACACAGTGTATATTGTTAATTCAATATTATAGGCGTAATCGCTGTTCTGTTCTGCAGACTTGCGTCCCTTGCTACAAATTTTGTCGGTAGCTACCAAGCTGGGTTTGTTGGAGGCAAATCCACCACCGACCAAATTTTCACTCTACGGCAGATCCTCCAGAAGTGCCGAGAGCGCCAGATCCCTACGCACCACCTGTACATTGACTTCAAGGCGGCCTACGACACCATAGATCGAAATGATCTATTGACCATCATGCAGCGGTACCACTTCCCTGAGAAATTGATACGGTTGTTAGAGGCCACTATGAACGGGGTGCAGTGCAAGGTGAGAGTGCCGAACTTGACGTCGGAATCGTTCGAATCTCACAGGGGTCTGAGGCAAGGTGCTGGACTCTCCTGTCTGCTCTTTAACATCGCTCTGGAAGGTGTCATTCGAGGCGCAGGGCTAGACAAAGACATCCGTGGCACGATTCTCTACCGGTCTCTCCAATTTCTTGGCTTCGCGGATGACATCGACATCATCGGCAGGACAACAGCGAAGGTGTGTGAGGCGTACACCCGACTCAAACGCGAAGGAAAAATTTACCAAACGAAAAAAAAAACAGAAGAGGAAGTAGAGAAGGCTTCGGTTAGCCAATTGTACAATTTTTACGGCAAAAAAAGTGATGTAATTTGATAAATTTGATGAAAAGGTTCGTGGTGCGGGTCACCCAGGAGATATTAATTGTTATATCGTGAATATGTGTGTATGAATCAACACAATGAATAGGGAACAATACGCGAGTCGTTTAATGTAAGGTGGAATGAGCCAAACCGCCGGTATTAGTGGGGGAAATGTTGTATACGATAATATAGGTTTCCGAAGTCTTAATATATACAGAGCCACCACCAGAAACACCTTAGGCCGCAAATACACGACGCGCGTTTCCGCGGGCGCGTTCAAACGCGTATAACAGTTCCGCAGAGATATCNNNNNNNNNNNNNNNNNNNNCTGCAATTACGAGTAGCGCGAGGAACATGAGGGTGAAAGCCGGCTGAACACTTTATAACTATTCCATAC'
p111
sS'AGAP004764_440bp'
p112
S'AGTGCTAGATATTCCTTTATTTTGCTGACTAATTCCAATTTATTGCAGTTTTCCTCCAAAATATTTCAGAAAGCCGGGACAAAAGTGGTCCTCCAGATTTTTTTCTGCTGCAAATGACAAGACAGCAGGTTAGCTCATAAAACCTAATGTTCTCTCCGCCATATTAAATCGATGCACTTTATTTTCAGTTCGAACAAAAACAAATAATTTGTATTTCAATGTTATTGGATTAGTATGAAATAATATTTTTTTAAGATGCACATACAAAGTACATGAGTTTTTCTTTTTATTAAAAATCGGGGAAAAATTAGATGCGCTTTTATGTCAAGTAGAACTGTCAATTGTAAATTGTCAATAATTCTAAATTTGCCAAAACTGGCCTCCGTCGTGTGTTGTTGATTTGATAAACAAACACAAGCAATTTTACACGCAACGGTGAA'
p113
sS'AGAP004725_2000bp'
p114
S'ACGTTGAAGTGTATCATGTTTTGGAAAGAACACAATTGTTGAGCAACAGTAGGTATGGAGGGGACCATTACAGGTTCAAAACAACATAACATTTCTAATTAAAGGATACATACAACAAACACTATCTAGCTCTATTAACTTTTTCTGGGTTGTAATAAAATACATATGTTTAAAAATTATACCTGATTAAAACAGATGAAAATAATACACATTTACCCTTTGGTTGGAGGGTAGTGAAAGCATGGTAGTCTACTTCTGTATGATATCTTGGTAAAAATAATTGGTGTTATTTTCTTTCATGATGTACATTAGTGATGAGCGGGTCGACCCAAACCTACCGGATCGGAGCCATCCATAAGCGATCCGGAGTCGTAAAGGTCGACCCGAAAGTAGGTTCAGTAGGTGCAATGATTCCGGTAAGTGCAAGAAAGCATAAGCGATTCCGATTCGTTGGTGTAGCGAGTTCAGGTCGACTATTGAACCTACTGTTACCCGACTCGATGATGATAATGATAAATTGACCAAAATTTTCCGCAGAGCAAAATGCGCTGGTTTTTGAATCGGTTAATTGGGTGTTGTTTTGTTTGAAGATATCCCCAAGGCTTTCTCCAATTTCATCGACGTCAATGAAGGGCATTTCACGTGAAGCGTGGGGCCAAAATGCCAAGCGCTATCTATATATTTCTCAGGGTACCGGATTTTTCGTTAAATTCTCGACAATTTGGTGTGAGGAAAAGTTTATGTTCGCTTATCAATACATTTGAATGTTAATTCCCAAATTAAGAACTGTTGTGGACAGACCGCTGCCTCATTCTGAGGGCTCACTGTTGACAGCAGGGCTGTAATCCTGTGACGTCCTCAGTAAGGATCGCGGCGCGAGAAGGACCAGTCGTCCTCTCCCCGCATTGCGTGTGTTGTGTATATCATTTATTACCCGTGTTTATTGTACCTATACCAAAGATAGGAATAAAACACATATTCTGTTTGTGCCGTACACCACCGTCTCCATGTTTCATTTTTGCGGACACAACAAGAACTCTAGCGTGGAGTTTGCGTTTCGCGCGTTTTTACTCTTCATCGGTGCGGATATTCTGGAAATGTAAAAATAGCCTATTCAATCGGCATTATTATTATATTACTTTTTTTACTTTTTAATTGAAGTCGCTTACTTTTGGCTATGAAAATGTAATGCTCGTAACATCGAAATCGACAACATGGAAATTTAAAGAGCGTTTAAGATTTGTATAACACATATGAAATTATATTAGTATCATTAAGGCTTATGTAACTATTTCACACCGGACTACAAGTACAAAATACAAATACAAACAAACAAATATTCAATAAAAAAAACGAACAAAGGCAAATTAAGAGAATTGTTTTATACGAGTGATATATTTTCGATTGTAGCACGTTCATCCATTGTGCTCGATAATAAAATTTTACTATCCTCCTGGCTGTTCGGACTGCTTGGTACTTAATTAAGTCTTGATCATAAGACTGTGTAGGACGGGGCATGATCGCTTAGTTAGTTACGCCAAATAGAAGAACATAAGGAGAGGTTTAGTGTACTGTGACTACAATACAGATAAAGTATTACATCAAGGAAATTAATCACAATTAAAGTAGACAATACAATAATAGCTTTTTATTATTATTTATTGCGTTGCTTATTTGCTATCATGCTATGTGATGCTAGATTAGCGCTTTGCTAATAATTCTATATGAAGTTACTTTCAGCGCGGTCTCCTAAGACGTCTCCGTTCCGTTGCGATGTGGAATTGTTGTTTAGTATCGTGATGGACCCTACGTGTTGCGTTTTTGTTGGCTTGCTGTTGTCTTTTTATTAAGATAGGAAACATATCAGCTATTCAAATTAGCTTACACTTAAGAATGTCGAAAAATAGTTAGTGTCTAACTGTCTAACTCAATAACAGTTTATGCATTTATGCAGCAACTAATATTATAATAGGTAAAGTTTCCTATTTGCAATATCAGAT'
p115
sS'AGAP004702_2000bp'
p116
S'ACAAATCAAAAAATTCTTTTAGCATTGCAGCAATAAAAAAAGCATAGGTTGCACGGAGTTTGAGTAGCTTACAAGTACTCTTGTACCTTAATGTACATTACCATCTTACAGGACACATTGAACTATCTTAGAAGTAAGCTTTAATAATAACTGAAGAATATTTGCAAAGTTAACCAAGAACTTATCTTTTTTGTGTCCAACTTAACTGAATATGGAGAAAAAGAGCTACTTTTCAAAGACAAATGAAATACGTCCATGATTGTAAATATGTAAAAAATTTAATACATTTCATGATAGTACTCAAAAATTTAAAAAAAAAATTCAGTTTCAATCCACTAGTGAATTCAACTTTTTAACATGTTTTATACAATAGATAGCGCTTATTTATCAATGGTCGATTCTAGAAACGATTTAAAATGATTTTAAATCAGCTATATTATTACTGCTGAAGGCATATATTTTATTACAACAAATTGATTTGAATAAACATCAATCGCCTAATATGTATAGGGTAAATGTACCAATAGTGGTGCAATTTGTAGTGGTACCGATGTGTTTTAATGGATTTAAAGTGTCAGAAAGGACATTTTCTAAATATTTTAACACATATGTTTTGGAATATGTTTTATCTTCGCAATCACAACCATTTTTACCATGAAATACATCAAATTTTCAAAAAAATACAAATTTTTGTGACTGCTCCGTTGTACCTATAATGGTGGTATGGTTCCTGTAGTCGTCTTATTGTGTTCCTATAGTGGTGGTAAACAAAGATGCATCAAAAACGGTGTATAATATCAATGAAACTTAGTTTAGAAGCTGTTTTCGTATGAATAGCAAGGATTACTGCCATAATATTGGTTTCTTCCGTAATTTGATCGTAAAAAAATGTATAAATTTGATCGATGAAACTATTGACTAAAGTACTGCATCACACCTGTCGTCAACCTACACCCGGAAGAGTGTGCTTGATTTGAAGTCAATTTTTCATTCAGCCATATAAGCGAATTTTGGCCTGTTTTTGGTAAATTACCTACATAAAGCTCATTTCTGTTGCTTATTTTAGTGAAAACAGTACGACATGTCGAAAATATCCTCGAATAAACAGAAAACGACCTGTTTTTATTGATTTTATTACTATAACCACTATAGGAACATGCCTGTTTTGTGTACCTATAATGGCACTATGGTAAAAAAAACACTTAAAAATGCATAAATATGGTCAAAAGGCAAATAATTTTAGTAGAACAATAACATTTCATAACAGTTATGTTGAAAAACTAGTAATTGCGTGGTTATATGGTCATTTAGAACGTTAACAGAAATATGAGTTTCGTTATGAAATCCTAAGGATTTTGGAAAAATGTTGACACATTTCACAAAATAATGGATTTTTCGGTCACTAAGTAACGGAATGGCCCCATTTAACTTTTAAACCCTTTGTAAAAGGCTAAAGAACATTTCACACTAACGTAAATAACTTAATTGCTTTTAATTTGCCGTATGAACCGCATTTTAGTGCAATACCACCACTATTGGTACTACTATACCACCACTATAGGTACATTTACCCTAAGTATACTACATACCAATTCTGCCCAATCGAATGCACGAACAACAATAATTACAAACAAATATATTTGATAATTATTGATGATTTAATTGAATTTGAAATGAAAATTCGATAATCTGCACTTAATTGAGTGTGGATTATCCAATGACATTTTGAAGGGCCTTTTAAAAACATCCAATTTGAACATAATTTTTTTATGTTTATATTTTTTTACTGAAGAACAATTATTTGCCCAGGATTTGTGTTTCCTGTTTAGATGAATTTAATTTAATTTGGAATAAAACGATAAGTTGAATTATATTTTATTAATAAAGCTTTGATAAAACTATCTAAATACTCAATGGTCAATCTCGATTGATCTTTTAAAAAAATGTTACAATGACAATTCACCTTTCGCAATACTTAATTAAAAATTGCATGTTATTTA'
p117
sS'AGAP004686_2000bp'
p118
S'ACCATGTGGTGATTTTGAATCGCTTTCTTCTTAAATTTCATTCCTTCATTTCTTAAATTATAAATCGTATAACTGTTACGATTACTGATGCAATGCGTTCGTGGGTAATTTCAAATATCGAAACGAAAATATATATTGTATAGCGCTGGGTATCGAAAAGCGGACTCTTCAGTTTCGGTCGCTCTTTCTTCTTTGCAATGCAGGGGACTTATTCTACATGGCCATGTGAAAAAAAAAAAACATCAAAAATACTCTTTACTTAAAAAATAGGGAGCAAACGAAAATAGTCTTCATATAAGTTTTTCTTCTTCTTCTTCTTCTTTGGCTTAACAATCGTTGTCGGTGAAGGTCTGCCTGCCCCACTTGTGGGGTTGGCTTTAAGTGACGTATGAATTACCCCGCATAGCAGGATAATCAGTCCTACGTATGGCGGCACGGTCCATTTGGGGCTTGAACCCATGACGGGCCTGTTGTTAAGTCGCACGAGTTGACGACTGTACCATGAGACCGGCCTAACTAGCGCCATACCATTAGCGTTGCGAAAAGTAGCACAAAACAGTGTGCTGTGCGTATATCAATGCAATATGTTGACTCCATAATTCCACGTAGAACATGTATTTTGCCATCACCTTTCTTAGTCATACAGCTCGTGTCTTTTGTGTTTACCTCCATTCTCGAGCCCAAACACTCCATTCTTTTCTGATATAACAGATGTACCGACCCAAAAATGTGTTTTATACAACGCCCTACTGTTAAATGATTAATATCAATGCACGACAGTGAGATCGCCGTATATCTCGTATTGCTCTTCGTTTTAACGGCTTCTCCATTGTGCTTTACCCTTCACCGTTTTGTAACTTACAATTTGTCTAATTACAACAGTATTCGTTTGCTTCTTTCGTTTGCGTTCGTAACAGTTTGCTTCGGCATTGTTAAATCGTACTTGTTCTTTAATTTACAAAGTCGCTACTGAAAGCAGTGAAACGTTCTAGATTGTAACTCGCCATAAAATGTTTATATGGTACGAGAATTCCTAGAAAATCGAAATTTCCGACTTCAAATGCTCAGTGTTGACTTGTTTGGTTCACTTTAGTGTTGGGTTTTATGAATCTTTCGTTGAGATTCATTCATATGAATCTTCAGTGATGAGTGATTCGAATCTCAAGTCGAATCTATAAAGATTAATGAATCTCGAATCTTCAAAGATTCGTGAATCTCTAAATATTCAGGAATCTCCTAAGGTTCTTGAACCTATAAGGTCCATAAATCCTTTAAAATTCATATATTTCCAGGGATTAATGTATCTTTAGAGCTGTATGATTTCCAAAATATTGAATTTGCCCGTTGTGGGTTCAAGCCTCGCATGGACAGTCTTCCTGTAGCAAAACAAACTATCCGGCTGCGTGGTACTTTTCAAGGAGTCTCGAAATACTGTAAGGGCATAACCACGCAGGTTGTTACGTCCAGAAGAAGAAGAATAAAAAGCTCAAGCTTAATGATTTTTTTTAGATATTTATGAATCCCTTAAGATATAGGTAGGGTTTTTCCGTTTCTCACATATGGTACGCAATATATGTGCTTCTCATTCGCACTGGTGCAATACTTACGTTTACCGATATCGGTTCTTGCGCATCTCTGGGATGGTGGCCTATTCGTGCTACCTTGCTCTCGTCTTTTGTTATTCATCTCTCGTGAAGTTGCTGTCGTGTCGAATTTAACGGTGGATTTAGTGGGCGATCGCAATTACGCCCCGTTCTCCTCATGGCGATAACTGATAATTTTTGTTCCCTTTAGTAATTTTAAGGTTACCCACTCACACATCGCCTGTACATTGGCTTTTTGCATTTTTATTTGAGGCCACTACCTGCATTCCACCCGGTTGACTGGGTTCCCACACTGATACGCGCAAGTTGAGCTTCTGTAGTCCGATCGTAGCTCCTTTGTTTTCACGAGGTTTGCTTTAATCCATCCATTCATCACTAGCGCTATGGATGAAGATT'
p119
sS'AGAP004762_382bp'
p120
S'CAAATTGAATTCATACAACGATTTGCTTGTTCATCATCTTGCCGTGGTATAAAAATAGCTAGGTATATCGAAGGTTGGTTGTCGAGATTCTGTGCACTAGTATAGGATTTAATTTGCTTTCGATTACCGTCGTCATGCTTGGTCGTCATACAATATCTTACATAAACAATGGTCTATTAGCTGGCTCAATTTTCCAGGATCAATTTGATAATGTCACTGATAACAACTATCTCGTCGGTAGCCGTCGGTTTATCAATCGATTAAGACGTTCTTTGAGCTAACATCATCGCAGGAGCGTTAGCACCGTTTCTATTTCGAGTCTGACTGACCTACGGTACTGTTGTTAGTGTGGCTGTGGTTTGCTAGACTTTATCAACCCAAA'
p121
sS'AGAP004759_2000bp'
p122
S'AGAAAATGTGGTGAGAATAAAAGTCTATTTTTTTAAACATCCGATTTTTTTCTTAGATTTGCAGTCCTTTTCCCAAACTCGATCGTAGAGTGTCGACGACGGCGAACGAATTTGTGGGCCACGCGAAGGATAACTCAACCCCTCTCGGATATCTTTTCGTTCGTTAGACACCAATAATGATCCCTTTAGTTGCTCTCCCAAAGGGTTTTTTTAGGGAAAACATCAAATAACGAGAGTGTCCGAAGAGGATCTGCGAAACGCAATCGTCCAGCTCACGAATCTCGTCGCGAAGCAGCACCAGCAGATCAAAAATTTAGCAAATTGAAATTTTTTGACGGCGGCTAGCGAAAGCGAAACGAAAATCGAGTCGTTGGTAAATGGAATCAAGGTTTCCTGTACGATCCGGACGGAGGAGTTTTCTTTGATGCATGGTACGCTAGGTACGAATACGTCTTCATTCAGGACGCTAGACGACGCCGCTCGTGTGAGAAACGCGGCCTTAAGAAGATAGGTAAGGGGGAATCACCAACAATAGAGCATCTACAAACGTTTCTTTCAGTGTACCGATTAACACCCAACCGGAATACACCTAAGGGAACGTCTCCAGCCGAAGCGTTTTTAAAAAGAACGATTTGCACTACGTTGGATCTGTTGAAGAAACCATCTCCTTCGACTGCAGCAGTTAATCACAAACAAAATCAGCAATTCAACAAACGGCATGGAGCGGTCAAGCGATCATTAGTAGAGAATGACTTGGTGTATGTTGAACAACACGTAAACAAAAAAAAGTCGTGGGTTCCTGGTCGAGTCATTGAACCAAAAAGAATCCACTATGTCTCGCTACGGTTCCGAAACCCCTGGGCAAGAAGAACAACAACTTCCATGGGAAGTTTTATTAGAATAAGTTGGTACTACTGCTGTAGCCGGCAATCATATTTCTATTAGTTTGAACTCTAAGGTGCCAGCTGATGTTCCTGTTGTTTTGTGGGTTTACGGGGTTTATCGGATTATCGGTATTTTATTATCACCACGTAAGAGAACAGGATGATGTGTGTGCCGAACCGATCACTTCGGTGTCGATCAAACGAGAGAGCTTCGTTACCACATTGCCACTACTTATAAAGCCTAACTGAGTGCCTCTCGCGGGCACTCCCTAGCTTCGGGTTTGCTATAAACTAAAGCATGCGTTACACTACACTAACCTTAACATACAGATCCCATAACACTGTTTTTGAAAATCCGCAAACAACCAATGAACAGCCATCTGCGTCAGCATCCGAATCCGTCGCATTCGAATCCATCCAAAGCTTACTACGTCGTTCCGTAAGAACACGAGAATTCTTCGATGGCTCTCATCATACGACCTTTACTAAAAAGGGGCAGATGTAGTAGGCTATGACTACCAAACAGTGGATTTTGGCTCAGCAGAATTTTGCTTCCTAGGCATAGTAGCCTATACCTTCTGTCGTAATAAATTACAGTGAACCCTCCCTTTTTTGTCACCTCTCCAATTTGAAAAACCTATCTTATTTGAACATTTTGCACAGTCCTTTGATTTCCAGTACATTTTTGTTCCTCTAATTTGGAAAACCTCTGAAATCTGTGTCCCTCTTATTTGTGTATGGTGTTGCCATGGTTATTGAATGATGTATGCTCAAATTGGCAATCCTGTTCGCAGTTTCCTATAGCAACAGTTAAGGCTGCATACTAATTGTTCTGTCTCTTTCTTGTTTGGATGGACCTTTCATTCACTTTCCACCTCTGTAATTTGAAAACCCCTTTTATTCGACAGTCACATCGAATAAATAACCCCAATAAGAGAGGGTTCACTGTAGTTCATAGTTAATCACCAAACGAGCAAGTTGGCTTTTATTTGCTCTCCGTTTGAACTGTAACAATCAGATAAGAACGTTTAACAGAATGAGGATGTTATACTTCAGCAAAGGAAAGAAAAAATATTTCCGAAACGCTTTATTCAGAAAGAATAGCTTGTTTAAATT'
p123
sS'AGAP004700_2000bp'
p124
S'AAAAAAATATGTTTGTGTATCTATAACATATCTTATCTGATAAATAAAATTGAAAATTTCTACAGTCTGTTCCCGAGTTATGCGGTTCTCTGATAAATTTAATCCACTTAAAATCCAAAAATATCAGAAATTTCTGCACGAATTGTATCAAATAAATGTATATTAATGTATAAAAGTACTAAATTTAATGAAAAGTGTCGAGTAATCAATTGTATTTTGGCCGAAAATCGCGAAATTCGACTTAGATCGGAAATACACGGAACGGCATTTCGCGGCCGCAGAATTTCGCATGCTGTCAAACCCATATACAAACTGTCAACGGCTACTTTTCCGAACTGTCATTACCATACATTTTTCAACAGGCGGAATTCCGAGGCCGCGAAATTCCGGTCCGTGTATTTTCGGCCTTAGGCTGGAAATAGATGAACCGAGATCGTCGCAGTACCGCAAAAATTGCGTATGACTTGAGCTGTCAATTTTGTTATAAAATCTGACAGATAGGTGAGATAATCGCGGTTCGTGTATGGCGCCATCCGAGGTCTGGTGACGATTGAATGTGCCAAGAAGAACTATTTTTATCAATTTGCGAATCAAAATAATTTATTTCACATAGTTGATGCAAAATAAAATACAAAACTCGTTTCTCGACACGAGTTTTTACACAAATCCACCAGAAAAAGTAAAAAATAATCGGTTCACGCTACCGCAAAAATCTCAGCAATACCGAAGATGGGTATCTCTGCGAAACAGCAGGCGCGGTTGGAGGCGCGGAAGATTTGACAGCTCAACTGTTCTACAACTGTTATAAACAAGGCGCGGTACCCCCCCGCCATGCAATTGACAGCGATTTGCGAGGGCGCGCGAGGGCTCGCACGCCATACAAGTTCACCGTCCCAGAGCCCTCGCATTAAAGAGCTTGCGAGCCTAGGCAAATTTTTCGCCGCCCGCCATGCAATTGACAGCGATTTGCGAGGGCGCGCGAGGGCTCGCACGCCATACAAGTTCACCGCCCCAGAGCCCTCGCATTTTACATACAAACACCATTACCGGAGATGAAGAGTTTTGCAATGCATTTGCCTCTTATTTCTCTTCTGTGTACACCAACAATTCCTCGGTACCGTCTAACTCAACATCGGCTTTATCTTTCATAAATGATGAGGTTAATTTATGCACACCACTAATCAACGATGATGAGGTGGAATCTGCTATTTCGTTGTTGAAGCTTTCCTACGCACCTGGGCCTGACAATATTCCCAGCGCAATTCTCATTAACTGCAAGGCTGCTCTCATTCCCATACTGACCAAACTATTCAACAAATCCTTGCAATCGAAATGCTTCCCGCGTCTTTGGAAATCATCGTGGATATTTCCTGTTTATAAAACATCTGACAAAAGTAATGTGTGCAATTATAGAGGAATTTCAATGTTATGTGCGTGCAGTAAACTGTTTGAAAAGATAATGTCTCGTCATATGCTCCAAGCCTTTTCACCATTAATTTCTAATGTTCAACATGGCTTTATGCCGAAACGATCGATTGAGACCAATCTAATATACTTACTTAACTTTTGCCACTCCTATATTGACAAGGGCTTACAGGTTGACGTCATTTATACTGACTTCTGCGCTGCTTTTGACAAGGTCAACCACTTTCTATTGCTATCTCAATTATCAAAGTATGGTGTTCACACAAATGTTGTTGAGTGGTTAAGAAGTTATTTAACTGATCGTTGCATTAACGTTAAGATAGGAACTAGTTTATCTGCCACATTCCATAATTTATCTGGTGTTCCTCAAGGGAGTATATTAGGACCTTTACTATTTATTATATTTATTAACGATGTCGTGTTTGCTATTCCTCATGTTAAATTGTTATTATATGCTGACGATCTAAAAATGTTCCTACCTGTTAAATATTCTGACGACTGTGAAATGTTACAAGACTCGTTAAACTATTTTTCTGCATGGTGTTTTAATAATGAAATGTTACTTAATGTTAGCA'
p125
sS'AGAP004682_2000bp'
p126
S'CTTTGGGGGGTCGCCATAGTTGAGGGACTTTACGTCATTTTAGAACCGTTGACTATTGGTTTCCGCACACAAAGCTTAGCAAATATAACAGATTTCTTTGTTATTATGTGCATTTTAGTGTGTCTATTGATTTTATCGAAAAAACGTAATATATTAACAAAAGATTTGATGATTTGTTTATGCACGAAATTTAAAATCATGCGAGGAAGAGTTCTAATCTCAAGTAAATTGTCCATGCGGCTCGTAGATAATGAGGAATTAATGTAAAAATTGAAAAAACATAATGATTTCTTAATTTTTATCATCAAAAATGTCCAAAACACAATGAATTATACAATAAATTCACAGAATAACACAAAATAACACACTTTAATGTATGTTTCAATGTTAAATAAGCATTCACAAAGTCCAAAATATATTTTTAATGAATATTTATTCGAAAAAATGGGGTAGAGAAATTATATAAACAAATTTAATGAATGTAAACAAAGTTTGAATCCTGGGGACCTTACGTCAAGTGACGAATTGTCAAAATGCACTAGAGTCCACCACCTGATATTTTTAAATCCACCTTGCTGGGGGCTCCGGCAAAGTGGGTAGAAAGGAGGTGTCGTCATGTAGAACAATTGGGCATCGAGGCTTTAGAAAAAAGCACAAAACCAGGATCGACGGCAGTTGTCAAATGCGACGAATGTTGCTGGTATTTGGGTATGATATATGAATTGTTTTCGTTTAATAAACATTTTTTTAGCATTAAAAATTCGTATTTTGCATCCCTCACTCCATAAATCGACATTTTACACGTTATAATGCAGCTGCTGCCTGTAAACAAATATCGACGGCTATTGTCAAACTGAATCTCAAAATGGCAACATGCCAAACGCAAAGAAGACACCTCCTCTATATTCCACCTTGGGCTCCGGTATTAAAATAGGAAAGCGCTGGAGGGGGGTATAGAAATTTGTATGCGATTTGACATAACAATACTCAATGATGGCGCCCGGCAAACGTGCTAATAATTCACTTTCTAAATAAACACACCTTGCTCCCAAACGATAGCTACATTCCGCAACTACATTTGACATTAAGAACAAAAGAAATTGGTAGCTGTCATTTGTAGCCGCATCAAGGTGGAATGTATAATGAGGTGTAGTTATAGCGCTTTTGACGATCCTCCCCCTGGGCTCCGATTTTGACAGATGGTTTTCCGCTTGTATATGTATTGATGGATTTTTTACGTTTGGCATGGTCAATATTTGGTGGAGATCAATTTGGGTGAATATATTAGTTTATTAGAACACAGCCCGTGATTTCAAATGGAAATTTTCCTTCTTGAAAGCGTTCGCCAAACGCGGAAAATTAACTGTCAGTTTTCTTCGTCGATTCTTCTTCCACCTAGCTGTCAAAACGGGCTTATAACTTGACCTGACCGTATTAATACACGATGCGCAATCTCAGATTGCGCATATATTCGTTTTATCAAAACATAAGTCATTTCGCGTAGCCAAGCCTGAGCTATAAACGTCATTTCCATACATTTTCAGATTGCGCCAAGATTGCGCATAAATTTTCAAGATTATATGTCCGAGATATATAAATATTTTTTGACAGATAAATATATCAAACCGACCCGTTTGACAGATAAATATATGCGCAATCTGAGATTGCGCATCGTCTATTGCTACGGTGATATCTTTACGGTCCTTGAGCCGCATACAAGTAGCTATCATCTAGCCGTAGCTTGAGATTGCGCATCGTGTATTAATACGGTGACATAACAATACTGGTGGCTCCGTTATTAAAATCGGGAAGGACTGGAGGGGGGTATAGAAAATTGTATGCGATTTGACATAACAATACTCAATGATGGTGCCCGGAAAACGCGCTAATAATTCACCTTCGTAATAAACACACCTTGCTCTGAAGCACTTCACCTCCTAATATCCATACACCTTGCTTGGTATGCATCAACAAATGATCGAATCCCCGCCTGTCATTTC'
p127
sS'AGAP004772_2000bp'
p128
S'CGGTAAAACGGTTACAACAAAGTACAACAAAGAATGAAGGTAAAACGAACAACAGCAACTACAAAAAAAACTTTTTGCGCAGATAATAGCGGTGGTGGGTGCATGCTTGTACCGCTTTTGAATTTTTGCAACAATTCGTTATAGGTCAGGATGGATTGGCCACCCGCTTGAAGAGTATAGAGAGAAGCGGTGAGGTGAGCATTGCAACAGTGGTACTTTCACTTTAAATTTTTTTAATCACAACCAATCTGAGAGCGCATGCATTTTTTCAACCATAACCAATCTGTGAGTGTGTTGTGATGGTGTTATAGAGGAAACTTTCATTTTCCCGATGCTTTGCCCCTTGTTGTTGTTGTTGTTGTTGTTGTGAGGCGAAGTCAGACAAATATTAAATGTCCTAGTATTAGGATTTGTATTTGGCTAAAATATTACATGATTACTATCTTTCCTTGAAATGGACAAACACGGCGAAGGAAAACGGAATCAAACACAATCGGATGCGCTGCCAGTAAAACCATCTCAATTGTGATTTGTAATTGCGTTTTACCCTTTTCCGTTTAGCGGACCGGATGCTCACACAGGTTAATAGCTGGTAGAAACGATTACTGCTCAAGAACGTAAAGATCCTACGGCCAATGCATAAAGAGCTTGATGGTCGTCACGCCAAATTGGGGTTGAAGCCAATGATGGTTGAAATGTGCGATAGGTTGGTTTCTTCATTTAGAAGCACGCGTGCTTAAAATAGTGTTGTAGCTTGTTGTTGAGAGCTTACAATATTTTCCCGAGCCAACAGATCGAGCCGACAGTCTTCCCCAAGTCGTTGGGCGGAGATTTTGTTATTTACTTGGGCAGCAGCAATCAAAACAAAAACACAGCTGAAGAAAACCATTCCCAGTACGTACGTACGCAAGTGTGTGCGGCATTACTCACTCCCTCCATAGGTTTGCTGATCGACATCTGTGTCGTTTCAAATATCCGCCAGCAACAAACGTCCACAAAGGTCTTCACAAGTCGACGGCCTTTGGATTGTTGTGTAGTGTTGTAGTGTTAGGCATGCGCATCGGGCAGTTTTCTGAATGCGTGCACCATTCATTCATTCATTCATGCTTAGAATGCAGTTGAGAATGACGGAGAGAAATCGAAGAATCTGGTTCCGTTTGTCGGAGCAGACAATCACGACGACGGTACGTTTGTCCATAGGTTAGAGCTTCCGGTGTGAACAAACTAATTTTAACGCGGTGTGCTTGTGTGTGTGTGTGTCTGTATGTGTGTATTAGCGGGACGCACTTTCGCCGTTGTTGTGGTGATTTAGTTACCGCTGTGGAGAACAGAACAGAGCGCAAAGGACACAGTAGAGGCCAGACCGCCGGAATTGGAATAATATTTGGTGTGCATCATTCTTCATGCAAGTACAAATTAGTTGTGGCTTAAAAAATGGTACAGCTACTCGAGTGCCCAAGCGAGCTGATGATGGTTTAGTTATATTTTGTGAGTGCATTAGTCCGCACCAGCCAATGCCCAAGTCGAAGCGTGAATAGTGTGAGTTTAAAGTGTGTAAGCATTGATAAGAGAGTCGAAGACGCAGCATAGTTTACAATAGTGATGTTCTTTGGTGTTTCTTTGCTTCGAAAGCGCAATCTTTATTGTAAGTTTAAAGTTCACACAGCTGCATGGGCGGTGTGTTGAGATTAAACCATTCTTGGTTTCATTTTTTCCAAAGAATTTATATTATTGTGTAACAGTTGTCGGTATAGATGGTTTGTGGGATTGTATTTATTATACGCGTGCTGAAATACTCTTTCAGTTTAGTGTCCAGTGTATTGTAAATTTTTGTGTAAAAATATTAATTAATTGAAATCGATTGTTCCTGGACGTTTTTTTATACAAATGTGATACAGCTAAAATAATATTATCTGCTGCGTAAGAAAAACTAATAGTGATTCTCAAGACGAGAAAAGAACAACTCGAAATTTAAACCAGTGTTATTCAGCGGACAAAAC'
p129
sS'AGAP004721_260bp'
p130
S'TATGCAACGTGTAACTACGATACACGTCATGCTCAATTGTGTGTTGGATGGAATAAACCACTTTAATATTTGTTGCAATTTATGGGTTTTCTGTTGCTCTGAAAAATTTGTAATATTCTGTTATGTAAATTCTGCGGCGCTATTTCATTCGCTTATAGAATAGTCCATGCAGCAAAAATGACGTTCAATTGGAATTACCCATGCAGCAATATTTTGATGCTTTTTGACAGCTTCAGTTATTCCAGTGGGGAAAACATCGA'
p131
sS'AGAP004728_2000bp'
p132
S'NNNNNNNNNNNNNNNNNNNNNNNNNNNNNNNNNNNNNNNNNNNNNNNNNNNNNNNNNNNNNNNNNNNNNNNNNNNNTTTTTCGTGTTTTTACAGGAAAAGATGATTTAAATAGTTCAAACTACTTTCTTAACACTTGTAAATATTTTAATTAAACAAATATGCATTCACTCATGTTATTAAATTGTCTTTTTTGGTAAAAAAAAACGAAAAGGATAATTGAGTGTTTCTAATAGACTGATGTACACAAAGGTTATCCGTGTAAAAAATATTCGACCGCATGTCCTCGGCGCGGACCAGTGTGTTTCGAGAAATGTGCCGCAGATTCAGCATTGCATCCGATGAATTCAGGTATCATCAACGTTTTCAGGTATCATCAACGATTTCAAGCATCATACCGCAATCTTGGCTTTGGCTAAGACAGATTCGGGAAGGGGTCCCGCGGTCTTGAGATAAAGTGTGAAACCCTGTAAAGTGTCCCACAGCTATGAGAACTCCTGGGAAACCCTGTAATGGTCAGCGGGGAATGATAAGGAAACGCATTTAATTCATCATTTGAGCTTGTTTTATAGTCTTAATTGTTGGGGAATTCAATTTCCTTTGTTTTGGTGTACGATGAGTAATATTCCGATTAATATTCTATAAAATATAGCGAAAAATCAAAATTTCACGAACACGTAAGGTCTAAAGCGGACTTAAAGGCTTACCCGAGTACAGACGGCGCCCATGGGCCTGTCCACGCCCGAATGCAGAGCCGATTGCATACGCTTCTATCTTCACCATTAACGTAAGAGGGATAGGCTTACACCATGAACGTACGCGAAAACCTAAAGTCTACGTTGACGGGGCCCCTAGACCGCCGGAGTCCCTGGCGGCCGCCCAGTCCGCCCACCGTTAGACTCGCCACTTTATATTCGCATGTTCTGTTTAGATCATATATTGTTGTCCGATCATTTCTACCCGACTCACGATCAGCTTCGCCTTGCCGGTGTTTGTTGTTACACTCTCAACGTCTTTAATTTGTTTTTCTTTATTTTTATAGAGACTTTTAGCCGATTGGCCTCATTGCCGATTGGTGTTCGTCTTTTTAATGCTACCTCAGTCGGCTCTGACGGTATCTCACTGCTCTTGGCCACCGTTCTCAACACTCACAATCCTACAGTACGGATTCAGTGATAATTTTGGTATGGGTTGCAGATAAATAACCATACGAACCGGGTCGGAACAGGATTGGGACCAGTTCCTAGAACGGTTTGAATCAATTCAATCAAGTTTCAGGAATGACATGGGTTTGAGATATCAACTCCAAGGTATGGGATCTGAATCAGTTTCGCTTTATGTGTCAGTCTAATTTAAGAGGAGCCCTGGTTATTGCATTGTCTTTATAAAAAACTTGTGCGCATCCTGACGATATTAAATATTTCCATAATTGTATTGCGTGGCCCAGTAACCAGGCCAAATTAACTAGTTATTTTATGTTGTGTCAATGGTCAATGGTTTATTTCATGAAATCGAGAACAATGAACTTAGAAGTTTTTGTTGTTAAACGATTTCCATAGTAACCAAACAATAAATTGACGCATGCTTGTTGCAGCAACGTGGACAAGCACATTTGTCTGCAGTGAAGGTATATTGAGCCAAAGTTTAGTGTAAAAGACGCGGTTCCTGAAAAAGGATAATATTAAAATAAACATTTAATAACAGTTTTGTTTCATTCTGTGGGATCATACATCTCATGTGCTAAAGCTTGAACTGGGAAACCTATTCCATTAATTTGTGGCATTGCATTTGCACAAAAATAACGAAAGAAGTTTAGAAAGTTTATAGAGTAAATAGTGATGGAAAACTCGCGACCATTTATGGATTTTCCTGGAGCTGGAAATGTGGATAGCAGTGGTCTCACATTGATTAATCAGCGGTCAAAGGGTGCAGGCCGGTTAGTACGCAAAACTAGTGCAGAGATAGTTAGTGAAGCGAAAAGCATGCTTGCTGGAGGTGAGCG'
p133
sS'AGAP004711_2000bp'
p134
S'TGTAGTTTCAGTACAGTAGCACTGCAGATGCACTATCTTATCTACAGCATTTATGATTAAGTTTGATAAATAAAGAAGACTGTTTTGTTCCATAAAATCACAAAGGTAATTGTAATATCTTTTATGTTTTGACCTATGACACGTTGATGAACACAAATATCACAATATTAAGGTAAAAGTAACCGTTCAGTTAGACATACAGCGACAACGTCGCGCGCGACGAAAAATAGCTCTAAATTTCACTTTGTGTAGATCAAAATAGCTCATTTGACTTAGTCAACCAACTTGTTTTATATTTGAAAACACACAAAAATAGGTTGAAATGTGTTCAAATCTAATTGATTGTGTTTGGCATTAATCTGGCTTGTAAAAAAACTAGATAATTCGATTATTTCGGATGAAGCAAAATTGTCGCGCGCGACGAGTAGCTCTGTTTGCAAAATTGAGCTACAGTCAGTCCAAAAAGTATTCGTCTAGCTGAATATTTCACAGAAAAAGGCAAATTATGGCCGCAATACGTATAGGGCGATAAAAGTAATGATGAGGTTTGATAAAGAGACCATCAATACACACGTTTTGTTAAAAAATAAGCATTTAAATAGTGCAATAGCAATCAAAATACATAAAAAACTAAAAAAAGTCGTTTGATGGGCGCGCAAAAAGTATTCGTCCATCTAGGTTTTTAATTATTTGCGCTGGACAAACACTACGTAGACGTGAATTAAATTTATTATTATCAATCTGCTGATGACTTCCTTCTAAATTAATGCATTTCTGTTGTTTCAATTGCACTTCAAGCGGTCAGAGAGGCACTAAAGGCAGGGGAGTTAAATTAATGGAGCATGATGGCGAAAATCGTATCTTAATCCTATGCATTCTATAATCCTTAAACCTATCCTACCCATTTTTGAAGGTTATAAAATGTGGAGGCCTCGTTCCTTCATTTGATCAGAGTTTGGCCATTTTTCTGACACTAATTGTGTGACAAACTGCCATATAAGCAGCCGTCCTTGACGGTTAATCTAACGAAAGAAGCGGTTTATTGTCCAAAAAATAAAAAAAATTCCAAGGAATCAGTGCATTTTGTGATGGCCAATACGATCAGGAAAAGAGATGGGTCACATTTGGGTGATGGGTCTTGCTGCATTTCATCGTAGCTGGTCATGTAAAAGCTTGAATGAGTGAGTTGTTACAAACATGTTTAGTTTGAATAATACCATACACAGAAAGTAGCCAAATCTGGTAATGAGCATCAAATAATTCAAAAATTCATTTCAAATTAGGCTATACTAATATATTAAAACACGTTTAAATCGCCAAGGTCATACGGCCGACGTCTACCATAGCGAAAACAGTCTACTAAGATGCAGCAGCAAAATCTCGTGTAACGGTAGCACCATGATGTCATGATACTAGAACTCAGTGAGGAAAGGTGAGCTAGAAAAATGATTCAAATTGATTGGAGACGAGATGGGGAAACATATTCATGCAGTTTTTAAGTACTTTTAGTCCGCGTTCTGAGAAATTTTACTTAAAATGTATCACATGGTTCACGAACAGTCGAGCTGGAGAACATACAGAGCATTGTCATTTGCCCGAAACACCAAACCAGCTGAAACCAAACTAATGAAAATGATTTAGTAGGCTCTAAATATGATATATGTTGCCAATTTGTCAATGGAACTTGGCCACGTAGTTCGTAAATGCAATATTTCTACCAGAGAATAATTGGAACAAGTCTTGTAGGATGAGTGGATCAAAAATACGCCATTTTAATGGTTCAAATGAGTTCTTGCGTTGTGCAAGTAGTCACCAATAGTCATAAATGCAATAAGAAACAAGATCAGGACATATTTTGATTCCATAACCTTTGTTTTCATACGCATATTACGCCAAAAGTCAGATAGACGAATACTTTTTGCGCACCAATCAAATGACTTTTTTAGTTTTTTAAAATAATTTAGTTGTTATTGCACTATTTTAATGCTTATTTTTAGCAG'
p135
sS'AGAP004712_2000bp'
p136
S'CAACCCTTGTTGCCGAAGATGCAATCCGTCCGATTGCCGAAGATGGGACCAACGCGCCTGGTTGTCTCCTGATGATGAACGCACCTGGTTGCGTTATCCGGTTCGTAGGACCAAAATGTAGGTTTCTACGGCCTACTCCGTCTCGTGGACTGTATTAAGGCCGGGCTACATTGATCGTACTCTTTGGTGTAATTTCAATTTTCACTAGCGCATCTGGCGGCGGCTGACCGAAGCATTTTGCCAAACAATTTGGAGCCGCTCCAGAAAATACGTTAATTTTCCATGTTTGTTTACTTAAATCGGAGGAGAAAAGTTTTGTAAAACGTAGATACACATGTCTTGCACGCATTGCATCCATTTTTGCAATGGAAAACGATGGAAAAACTATTTAATTTTGAGGTCCGGCAGGTCCATTCCCTCGATGACTGGTAAATGCTTCCACCAGCCGCCGCCAGATGCGCTAGTGAAAATCAAAATTACGCTTGCGAGTACGATCAATGTAGCCCGGCCTTTAAGAAAGGGGAGCAGAACTCCCGAGCAAAAGCTTAGAAAAAGACTAGCACCCCGATGCAAACTTCCGCCTATCTAACAACGGATTTTACCAAAGGGGTCTTGCCACTCTTAATGAGAATCGAATTTTCCAAGAAGAGCAATGCTCACAAAAACTTGGAGGAAGAACTAGTTAATTACACTGGAATTCTTTATTGATTTATTGATAATTTCTGGGTTGTTCTTATCAGGAGCCTACGTGCTCCGTTAGCGATACATACACTTTCTTGTTAAATTCTTGTTGCGTTGGCACTATTCCTGTATGTGTTTGAACTGGATTCTGTTTGAACTGGTTTAAATGGGATTTCTGTCTAATGGGAAAATACATGTAATGCGTGTTGCCTATGCATAGGCGTTGTTAATTCATTGCCTAACTTGCGGGTGTGTTCTGCCTATCTCAATATTCAACAGTCAAAACAAAGGAGAAAAATTCCAGGCATTTCAAAGAAAAATTGAAATGATACCGTGGGAGAAAGATATTGACATAAACCCGGAAGAAGTGAGAACAATAAACAAATTGTTAACAGGACACGACCTGTCACCATTTTGGCTGGCCAAAATGAAATTAGTAGAATCAGGAGTGTGCCAAATATGCCAAACACAAAATACAGGGCGGCATATGGTTTTTAACTGTAAAAAATACGAAACAAATAGAGGAGACATAACATTTGATAGATTAAAAGAAAGATGGAAACAAAAATCAGGATATGAAATTAAAAAAATTACCAAATTCATGAAGGAAAATCAAATAGAAATTTAAAAAATACAAACAAAATAGCATAGAAAGACAAAATGAAAAAAAAAAACACAATAACATAAAAAAAACCAAATGACAACTGTCAGGGTTAAAATATAGAGTGGGTAAAACCTTGAATACATTTGAAACGTCAAATGTAGGGGAATACATCCTCACTCACCGAAGAAGAAGAAGAAGAAGAAGAAGAAGAAGAAGAAGGATGGTTAAGTTTTGAATTTGGATTTTTTGCCGTTGGTATTGGATTTCATTCGTTACATCATTATTGGATGATTTGTTATCAATTGGAAGGCAGCTTTACTCACTTTATTGAAATTTGAATTCAACTTATTTCAAATTTAGGAGGGACGACAGGATTGGATTTACTTTATAAAAATGTATAAAAATACTGATTGATTTTGTTTTAAAAAGTTATACAGTGTCGGACAAATCAGTAGGACCACTTATCAATTTATTATTCACTTATCATAATATTTCATGACTTAAAGTGATTCAATCTTTACCAAACTTTCATGAAAGCACTTTTCGGATGTTGGCTTAAAGTCTGCTTTGAAAGTTTGTTGAAAAGTTAACAAACAAAAAAGTTATTATAAGAAATGATAATTTCTGGGTTGTTCTTATCAGGAGCCTACGTGCTCCGTTAGCGATACATACANNNNNNNNNNNNNNNNNNNNTATTCTTTGGACGACGCACAAA'
p137
sS'AGAP028223_2000bp'
p138
S'TTTAATTAAAGTTGAGCTGTTACCTACGTGTTGATTAATATATTTAATTCGTTATTAATTTGTACTAAATGCATTTAAATCAACTTATAACATAAAACATCATCCATTAAAGCTTTGTTAAAACATACTGCTCCCATGGCAAGCTTTACTGTAAAATTGGGTAACACATACAAAATGTGAAGTTTTCACCGTGAACAAAGCGGGAAATGCAAGGAAATGCATTTAATGTATTATTTCAATATGTTGAAAGTCCATTTTTTTGTTGTTGTATAGTCCCAATAGTTGTGGAATGGAATATTCTTTCTTTTGGTGTACGATAAGCCATATTCTGATAAATATTTAATGAAATATAGCAAAACAAAACCCAAATTTCACGTTCAATTTCACTGGAACTGTAACGCAGGCTTTAGAGTGGACTAATCGGGCAGTTGAAGCCCTGAGCTCAACGGATAGATTAACTGAGTTTAGTTTAAGAGTAGTTTTTGAGAAAAGGATAAATCATAAAACTAATTAATTGAAGTCAACAGTGCAATTTGCACAAAGTATTATGATTGAATGCTTATAAATTCAGTTAGCATACAAACGATTGTAAATTAACCGCAGAATTAGGGTATAGAACAAAATAATTTACTTTTTTTTATGATTTTAAAGAAAATGTTTTATTTATGCAGTTTACTATAGGCAAGAATCCCTCCCAACCACATTATTTGAAATGAAATAGTACACACAATAAATAGTATCATCAATGAATCTTAGTTAGCTAGTTAGTTAGTTCTTTTATTTCCATTTTTAAATTTCATTAGTATGTACAATAGTTTGAAATCTTACGCGTTACTGGGTACGAAACTATGTTCTCTCCTCATTGAATTCTATGCTTAACGGCAATCTTGGCCGGAAGAACTTAGTAGATTTTTCATAATTGCAAAATTAAGGAACAATTTAATTAAGGGGAAAATGAATGAATCTTAAAATCTTGTAGGTAACTCTAATATTATGCTAAAATATGAAATAACATGTAATAACATTATTAAAATCTGCAATTCAAATACTTTTTAAGTGTTCCGTCAAATATCATCGCTTGGGGCCTCCTTTGCATACTATCCGCCATTAATAATACTAGATATGACTTCTGAAGTAGCTCAATTGTTTTGCAAATTCAACCGAAAACGTGTAAATTTGTTTAAATTTTTAAGCAGTTCATGGTTGCCATAATTCGATTATATAGTGTACTACGTGTCTTCTATTTTATTTTTTAAATAATGGTAAATAAATATGTTTAACATCTATTGATAGAGTTTTCAATTGGCAGCCTAACATATTTTTTTAAGTTATTTGGGCGTTTGCATCAAAGTTAAAATAAACGTTTAAGAAAACAATGATTTTTTTATCTTTATTCTATTAAGATATTACGGTACAAACCGAATTTTTAAAAATTTAACTATTGATCAAGCTACGCATACGACGGACGTGCTAAGCCGAACACTTTATGTGTGATTTATAAATCATTCGCAACAGGATATTTTACAACGCTGTTGCTATTTTTATCTATATTTACAAAGTAGCAATAACAAAATATAAGAATCGATAGGTATCAACTACGTTAGTAGTTTATCACGTTTGTACGATGTCAAAGCTTCGTATTTCTACTGTCTACACTACACGTTCTACGTATTCCACTACATTTCTTTCTTTAAAACACGCCAACATCAAGACAGTACATGCAGCAAATCGAAGTTCGTATCAAATGAAGCGAATAATCAAGTGTAAAACGCGCTTGGAGTAGGAGTATAGGGCGAAACTATGTTACCTTTCGCTTGGCGTTCGATATAAATATGCGTACATTTGTGCAAAGTGTCATACAAACCGTAGCTTTGAACCGGTGCTGTATGTACGCTTTTATAGCGTATGCCAAACGCATAGTAAAACGGTGTTAGTGCTCACGCATATATCCTGTGCGTGTGTGTGTTGGAAATTGTAATAGGACGCTAGCCATAACAGCC'
p139
sS'AGAP004767_2000bp'
p140
S'TTCATAGGCGCGAGCTGTCAAAAATGTAAACATTGTTGTAGCGTGCTGCGGAATGGTGCGCTATTGTGAGCGGATTCCACGCCAGAAAAACAGAACAGTAACAAACCATATTGTGGTACAGTTGGTGGTCAAAAAGGGTTCATTGGTGACTAAATACATGTAGGAATACATACACTAGTGGTACAAACGTAATAATTTCCAATTATCTAAGAAATACGGTTATTTTAACCAGGTGGCCGTCTTGCCCCATACGAGTGGCACTCTTGCCCCATAGCCCAAAAAACAACGTCTTTTTGGACCCTTTTTAAAACGCTTCAAAAACTGTTTTATTTGCACTTTTTTCAAGCGAAACTCATTTATAAGTGAGGAAATAGATGTAAAATGGTTATGAGATTTAAATCGGCTTTTGAAAAACACGTTTTAGTGAGTTATAACTTGAAATGCTTAAGGTGGCACACTTGCCCCAAGTTCCGCTACATTGTAGTGTGGCTATTTACAATGCTCTACTGCATTAGAAGTAGATTTCAACGAGCCAATGTGCAGGAAGCTTACGATTGTGATTGTGCCCCTAAACGGCTATTTCGAACGTGATCGAACGTGAACATGTTTGTTGATAGCTCACAAAATACTCATATATTTTATTTCTTCATTATATGGAATGTTTTCCAAAATAAATGATAACATTTTTTTTTTGTCATTTTGTTGCTCACATCATCACATGAAACCATAATTTTAAAATACTGTTGTATATATTTTTGTTCAAATATTTGAGCATTTTTTATTTTCATATACCCATACTAAATCGCACTTTATGGATATATGCACATATGCACTCCTTTACCACTCTGCAGCACAACTGAGACTGTCTGAGTAGCAGTGATGGGAAAAATGAAGATTTCGTCGGAATCAATTCCGGCTAGCTCCGAAGTTTTCTGGAATCGATTCCTGATAGTAGGTCCGGAATCAGTTTCCGGAATCGATTCCGGAATCGGCACCGGAATTGGTTTCGGAATCGGCTCCAGAATTGGTTCCGGAATTGGCTCCGGAATTGGAATCGGCTCCAGAATTAGAATCGGCTATGGAATCGGATTTGGCTCCGGAATCAGAATCAGCTCCGGAATCGGAATCGGTTCCGGAATTGGCTCCGGAATCAAAATCGGCTCCGACATCAGAATTGACTCCGAAATCAGAATTGGCTTTGAAATTGAGTCGATTTCGGCATCTTCATAAGAACAGGCGTTTGGGTCCAATGATACGCTACGTGTTGATAGCGGCAAAGAATCAAAAGTTACTTGTAAATGATCTATTCACATGGAGATTTCCGGACTTATTTCGCTTCCCATACTCCTTATTTCAATTCAAAAACTAATTCTCATTCTGGAGCTAACTCCATTTCTGGAGTCAAGCCTGATTCCGTTAGCGGAGCAAATTGCGATTCCCAGGTCGATTCCAATTCCGGAGACGATTCGGATTCTGGAATTGATTCCGGAACTCCGGAATCGGCTCCGGAACCAACTCCGGAATCGGCTCCGGAACCAACTCCGGAATCGGCTCCGGAACCAACTCCGGAATCGGCTCCGGAATCGACTTCGGAATCGGAATCGATTCCAGCATCGGGATCCGCTCCGGAATTGGTTCCGAACACGGAATCGGAATCGGGTAGGTCCGATTCCGAGCTTCCACCACTACTGAGTAGGGCGCAGTAGAATCCAATTCGTATAACATAAAGTTAATTTCCCATTGGGAAGCGTCAAAAAAGTGTCCCAAAATTATGAGAACTCCTGTAAACACCTGTATCATAAGTATAATGTATACAAACAGTTACATTATTGAATGCAAGACATTGTCCAAATAATTGTAAAGCTAAAATAGACTATTTGTGCGACGTATACGAAACTGCAGCATGTAACATTTAATTGAACCTATCAAATCTATCTGGAAATTGCAATTCTAAATAGTTTTTCCCCTTTTTTCCTTCATATTCTTACACTACAGTTAGA'
p141
sS'AGAP004693_2000bp'
p142
S'TCTGGAAGGTTGATTTTGGTAACTCTCGTAGATTCATCTTGCATAATTCTTGCATCTGTTAGATAATATTAATATTTGATTGGTCGTACAGTTTCTTAAAAATTGGTTGCTTTTAATTCGTTATATCCTCTTATATATTTGTTTAAGATAAAAGCTCTACAAAATCACTCACTCTTTAAGGTAGTGTTGAAGATTATAACATTAGGAAAGGTGCAAAAGTAGTGTCAATTTATTTTCAGATAGTTTTCCCATTGACGATTACATGCATTTAGATTCTCCGCTCTGTGAAAAGTTCATCGAATCACTACAAGCTTGTTTAGCCATTCCAAGGACTGTCTACGAACATTAGCAATGTGTGAACGTTTTTATGTTGATGGAATGGGTTGATAATTTATTCGCATTTTGAAAACTTATTCGATTATATGTATTTCTTTAAGTATATAATATTGATATCGAGGATAGTAGTTTGAAAATGTTCTTATAATATAGCTAGAATGTTTGCAATGTTGAAATTCACTAAAGGAAAACCATCGATTCATGCAGTACATGGAAAATATTAATTAAAAATAGAGTACTTTTAACGTAAACGTGCTAACGTAATATAGAGTACAAAAATAGAGTACAGAAAGCAAACGTGAAAAATCTTAATGAAATAAAGAGGATAAAAACCTGACAAAAATGAAAAAAACGATATATGTTTTGCAAGTTGCAAGCAATACTACCCATAAAATGGCCATAAAATGGACTGAATAATAAATAAATGGATAAAGAAATATATAAATAAGACATGCAATATGACAAATGCTATTCCCGTTTGTGTAAAAGAGGAGTAAAAGATGACGTGACGGAACACGTTTTTAAAACAATACTTCATTAGGAACGATAAAAAACACAGTTTAGTGATTGGAGCTATTTAAAAACACTAGATTTGAAAATGCAAAAAAACTGCATAAGTATTAAATCAAATACCATTATCTCCCAAATATATGCAAGCGCAAGTTGTCATCGAAATTAGTAATATTATAGTAACGTCAATATCAGCAATGACGATAACGTTTCCGCACATTTGGAATGGTTTAGTAGAGGTATACATTCACACACATCAAATTTCCAAAAATATATTCTTGGCGTTTTGGATGTAGGTCGGGAAACATGCCATTTTTCAACGCATCGTTGTATGGTTAGCTGTCGGTAATTGGATTAATTGTTAGGGCAGGTTAGTTCTATCACAAATTGCCGACTAGACTTTTAGCTGCAGCTGGTTGTTAGTACAATTTCCGACTGTAATGCCACATCTAAACAAGTAAATTTGAACACGTTCAATTCGCCTTCTCCGCCTTCGTATGAAGATGAAAGTTAAATGAATTGTGGATGAGATTATCTTCTGTAGCATATATGCTTAAATACTGAGTATGTACATAATTTTTAGTACAGTAAAATTTACGTAAAACTGTCAAATTATGTGTTGTAAAGATAAAGTTAATCTTGAAATGCACAATCAACGAAGAGTAAATTTAAATAAAACACCGAAAATTATAATCCAGTAAAATGTTTAAAATAAAATTGTTGTCTATTCTTTATCAATAAACATGTAGATTTTATTTTGTCTGCTGGAATAAAATCGAAACAGTTATCTTTTCTCTGATTTTTTTAAATTAGTAAATTAAAGAAGTAGAATGCCAGAGCAGTGCTAAAAAGAATAAATCATCTCCATAAATTAATCTTGCAGGTTCGTCCAAAAAAGCATTCAAATAAAAATAGAATGCTTTTTTTAAAATATCTAATTTAAACAATCTCTCAACATTGCATAAGTGTAGGCAACAAGTGTCGCATAATCAAGTTATTTATATAAAATATATCAATTAAATATTTTTTCTGTCTTGTACTTTATACTTGTCCTGTTTTAAAATTATGGTAATAATACATAAAGCCTGCAGTTACAAAACGTTGTCTAATCATGTTGTCTTTTTTGTTTCTGTTGTTACTATGTTCCAGGAATT'
p143
sS'AGAP004751_306bp'
p144
S'GCATAATAAACGCACTGTTACGATCCTTCGTACTTTGATGTCATAATCGGTTTTATTTTATTTTTATTTTATTTAACTCGCTTCTAAACGGGTCGGGTATCTTTTTTTCTAGTTCAAACAGTAATAAAATGTGCACATTTTGCTCAAGGAGGCACACAAGCTCACTTCGAAACGAGCACTGTTGTAGGCAAGAAAAGGCCGGGTAGAGAAAATGAGCGAGATGCAGCAATATTCGAATGTCAAAAATCCTCGCCATGTTGTCCGGGATCGCTTGACAGTGACAGCCAAACATCGATCAAAACAACA'
p145
sS'AGAP004744_800bp'
p146
S'TTTCCTCTTTTTTATTTTCGGCAATGGAATAGAATACGGTACGGTCTATTCGATCATATCATATCACCAGACTTATTTTGCCACATTAACGGGTAATGGATCTAGGCCACAGGCGGGTGGAGAGGAAGAAGAAGGGGGTCGACTCTCGTCCAAATTCGTATGAACTGCACCAACAAGCTGGATCTATATGATGCATTGTTGTTCATTGCTTATTAGTTGTTTCATTCTAAAACGGTTAAAATGATATTTTTTATTGAAAAATTAAGATACAAGCGATAAGCTATGAATTTCAAAATACGGACGTATAGACATGACGAAGGTAAGCTGTGTTGAATGTTCGTTCAGAACAAACTGTATACAAAAACGTTTCCAGATATTGAGTACATGCTAGGATGTTTTTGCTTTTGTCTATTTTTATCTTATTTATGTTTGTTTTGTTTTGTTATGTTTGTAGATTTGTAGTAAAACTTTAAATGATGCAAAGCATTCAGTTTTCAATCTAACATCAGTATAATTATAACAATAGTACTGAATTCTTTGGATATTTTCCCAAAATCGATAATATTCGTCGACATTTCAGCTCTACGTTGGCGATCCAGCACAATACAAATTGTTGAACAGTCTGTCATCTTGTTATTGAATCCCGTAACACATTAGTTCAATTAATGCCATTTTAATTGTTTTATCCACACACAATTTGCCCTTTTTTCTAATAGCAGTACATCGAGTCATGTGAAGAAATCTTTATACCATATTTAGGGGACACTTTCCCCTATTTTTACGTCTATCAGATACCGATC'
p147
sS'AGAP004694_2000bp'
p148
S'AACCAGACCGTCCCACCATGGCATAGAAGGAATATCCGGCTAAATCTCGAAAGCTGGAACATGACTGAAAGACCACGAAGGTCGTTACGCCAAAAAGAAGAAGATTGTGCAGATTTGTTAGGAAAACTTGGTCAAAGAATAAAAAAATGTATGAATGGTAATGTATGTAAGTTTCACATAAAAAATATGATTAGATTTTACAATTGAATGCATTAATTATTTAATGCTTTCCTTGGGATGCAAATGTGTCCCGCGGTCACTGAATAAACGGTTGCGCTACAAAGAAATTTGCGCGAACTACCCCAAAATCCAAAGGTAGCTGAGAGCGATCCAAATGTAGCTGAAAACGATCCAAACGTAGCTGACAACGATTCAGACGTAGTTGATTGCGATCCATTCTCATGGATTGCGATCTATAGCAACCGGATAAAGATTCAGAGGAATGTGAGAACAGGTGTATATTAATAAAAAATATTATTATTAGTATTATTATAATTATTATTATTATTATAATTATTATTATTATTATAATTATTATTATTTTTATTATTACTATTATTATTATTATTATTATTATTAAAATTATTATTATTATTATTATTATCATTAGTATTATTAGTATTATTTTTTTATTAATTTTACTATTATTATCATTATTATTACTATTATTATAATTATTATTATTATTATTATTATTATTATTATTATTATTATTACTATTATTAGTATTATTATTATTATTATTATTATTATTTTTTTTTATTATTTAATCACATAACGGTTAACATTGTTTCAACACGACAATAGGACTTTCGGAATGAAGAAAATCGCACACGAAATTTTATATTGATGAGTTTTGCATGCGATGGGAGAGCATTTGACTTTCGCCAACGCAAAACATGCAATAAAAAGTTTTAAATATAGTGAAATTACATTTTTTTAGATATTTTGTTGTTACTATGATTTAATCTTTCCTCTTAATTTCACACAAATCACTTGGTTTCCCTTTAAATTTATTTAGAGGTATTTTCGATCGTATTTGAAAGCAAAAAACATATAATAATAAAAACCCTTGTTATTTTAACGAGAACGACGATTCCACACTGTTGCTGTTTACGAGTACAACGATTGTCAAAGAGCTTTTTCATAAGGAATCAGTTATCAATTTATCAGACATGGCATGACTTGTCCATAAACCTTTTTTAAAACGTTTTACTGAATCTATGTTTGCTTCGATAATTTTTCAGCCTTTCAGATTTTTGTATCATCCCCGGGATATCTTCAATATTTTTTATGGCGTGGGAAGAAGGGGTCTTCAAGAAGCGATATTGATCCCTTTTTGTAGTTTTTTGACTGATAATATTTTTGGGCATCTATTGCTGATTCTAAAATGATTAAAGATTACAATTAATTTTAAAAAAGGTATCTTTAATTAATTGAACTATACTTGGATGATATAATTACAGAAAAATAACAACAATGCCAAAAATATTTCTAAAAGATTCAACTGTAATAATTTAAGTGCAATAATAAAAAAAAACCCTCATTCTCCTGACCCGCAGCACACGATCATTTACTAAAGTTGGCCCATTGCCTCAAAAGTTTGCCGACCGCTGGTATAAGGGGTAAGGAGGGAACACATAACTGACATGACTATGTTTCTACCAAGAGCGCCAGATCACCACGCTACTGCTCTAGTTGTGTGTATAATTTTAATACAATGATTAAAATTTAACAAACCATGTAGGCCCATTAACGTAATGGTGTTATGTGTTATGTGTTGTAATGGTAATTACTGAATATGCGTAATGGTGTTATGGTAATATTTCGTATGAAAAGTGCATCTTTCTTTAATTTCTTTTAAAAATGGCCTAGTTGGCTTTATCACTAGGTGCTTCTGCTTTGATATGCTTAAGCATATGCAAATACCGTTTTCAATATTATTATTACTTTTTTTTTCTATGAACACAAAACTGGCTCTATAAACTGTAAGGAATATT'
p149
sS'AGAP028030_1548bp'
p150
S'GAAATGGCAAACGTATCATACACTCCAGCGTGCTGTACATACTACCTGGGCTGGAGGGGACACACAAAGTACTAACCAAGAGTTACTGAACAATAATCACGCTTATGTCACTGTGGTGTGCAGCGAGTCACACAGCCCGTTCGCGTGCGCTCGGGGAGTCGTGAGCTTGCGGGCAAATTTAATGTAGTACATACATACCGTAGTAAGAAGTTGAGGTGCGTATCATTTAAAAGTATTACCGTTCAGGAAGCTAGCAGGAAGCGGTTGTGGTAGCATTTACGTGCAAAACCAAATCAGGATGTACTGTGGGGTAGAATGTGGCATATTAGCGAGGGATAGTGCAAACTGGGAACGACTGATAATCATTGTTGTGGTGTAATCAAAATGATAGCAATCGTGATGCGGGTGGGGTGGGTGGTGAAAGTGGTTATTTCCACTGGTTCCGCGGTGGAGGCGTTGCAAGTTAGCCGAAAGGATATTAGGATATTGAGACAATTAATTAATCTGTAAGCTGTACTGTTATCATACAACCATGTATCACGCTAAGGCGAATGTTCTGATTTCTCGTACACCATAAACGAAAGGGGACATTAATACTGGGCTAAGGTGTATGTGTTTGTCTATGATGAGTACTCGCAATATCACATTTATATGAAGAGATCGGTTGCGTTTAAAACAGATTACCATGAAATGCAAATAATTTTCATTAAACTTTGCTATACAATTCTAGTCCTGCTATCTGCTATACACACTATTGTAAGGAGTAACGGACATTAGACTAGACAACCTGGAGGAATATATTTCTACGCTGAATATTTAGGTCGAATTTATAAATAATCGCTCTTATCAGTGCGGTAGTGATATTAGTTGCTCGAGATTGAAATAGGTACTGTATGAGTTCCTGAACCGTTATGAAGCCCGATATAATACCCTCGTATAATCATTGAACCGGAATAGAAAATGAGTAGTTTCGGGACCAAGATCGGATCGAATGCAGGTCTACGAACGGTTTGGGAATCAGGTCCAGTCCCAGAACCAATACAGATTCAGTGTGTCACTTCCAAGTCTGGTATGGATATGGGATCTATTGATGGTATGGATTCTGCATCATTACAGGACCAGTATGGCTGCAGGATCACTCCTAAGATCAATATGGGTTCATGATCATGGTTCAGAAATGTCATGACATATGGATCAACATGGACTCAGGCATTATAGGAACTGTAGTCGTAGCAAGTAATATTTGAATGGTTTTTCTTTAAACAACTTTTTCAGCACCTAGTAGTATTTTTTTCCCGCGGACATTTTTAGTGAAACCCTATAACCGGGACAAATTGATTTGAGTGTAAACAAATGTCTGGTAAAAATTAAATCTTGCTTAACCCAAACAAATCGTTCAAATTAACGGCTTTTGTCGGATATTTCGCTATGAACGCCCAAGGTATCTATGCGTGCAGCCTTCTCCGACAGCCGCACCACAATTGTCTACACCTTGGCGCTTGGCGCAAAACGTCAGCCGCGGAATCGCACACGCGCAAAAACAATAAC'
p151
sS'AGAP004741_772bp'
p152
S'AACATTTTGTTTTGATTTGAATGATACAATCCGACAAACTATATAGCAATCAAGGAACACTTTGTTTGATGAGCTTAACCGTTTTCATTGACTTTCAAAGATGTGCTTAAAATTGGAGAGCTCTACCTACCCCATTAGATCTCAATCACTTCCTGTACCCAAATATGTCCAGAAAGGGTGACAAGACCGTTACTTATTGTGCGAATAGATAGCAACGTGTACAAATTGGTGATAAGTGATAGAGCACCATATCTGAGACAATCGAATGACTTCACCAAACTATTCCATAGGTATCGCACATTTGTCCAAACACCAAACAAATGTGGATGGCTTTGGTACAAAAAAGGATTATTTACGTTCCTGGTATCGGCGGACACCGAGCTGGTTTGCTGCACAAACAAAATGCATATGCTTCATATTCGCATTCATTAGTAAAACCAAAAAACTAAAAAAAATCGTGGAACTGAATTATGTGATGCGACGGTACTTTTCCTATCTTTTATGTACGAAGAGTGTATTCCACTGTCCAGTTATGGTGATAACATCTGTCCCAGACGAAGCGATTGCTTGCACGACAACCTTTTCCACTCGTTGCGCTCTTTGCGCTGGCAGGTATCCGTTGTCGATAAAATCGAGAGCAGCCCTACAATGGTGTAGACAGATATAAGAATGTTCGCTCAAGTGGTTCACCATTTTCGTTTGGTAAACCCAGTGTTTGGCGCTTACTTGGCACCACACTGCACATATCCTTTATCTAGCCCTTCCGAGCAAC'
p153
sS'AGAP004736_620bp'
p154
S'CTCCTGAAAAATAATTTGAATTCGATTAGTAAGAAAGATTAAGATTAACTATTTTCTAATGTATTGAAATTACAAAAACCACAAAAGATGATGCTATCATAGCTGTGGTTTTAATAATGTTAAGCTCGCGTTAGAACCCCAGGTGAAATTTGGGGTTCTATGGCTATATTTCAATAATTTTTTATCAGAATATGGCCTTTCGTACACCAAAAGAAACGGTGTAAAAAATAATGGTCAGTGGGGAATCACAAGGAAATTATATAGGAAATTTATCGGTCGTAAGATCCGGCCACGAGTACTCAAGACAATTGACGTTCATTTTATTGTTTTGAATGCAAAATATGTTAACACTAGTAAATAATTATGTAAACCCTAAGAAAGTGAGAGAATGAGGTAGCGCATCAAAATGCGTACAATAAATCCCCATAATTCGTCGGATCAGATACATTTGCTGCAGCACTGGTGAAGTAGCTGCTGTGCTAAACTTGCTTGAAAACCACTGAAACTATGCGACTTTCACATCGGTCAAAATACGAAGCTGAATGACATTTAAGAAAGCAAACATTTTGAACCTTTTTTAACAATCTCGTTTCAGTGTGCGTGAATGTTTGGAATTGGCA'
p155
sS'AGAP028075_847bp'
p156
S'CGATAATTTGATGTAAAGGTTTCTGTGTATGTGTTTCAAGAATAAAGCTGATTTAGAAACGATATTCGTACGCAAACAAAGCAGGACTTTCGCAGGGGCAGAGGAAAGTTAATAGCTTCTCCCCACTCTCTTTCTCTCGTCCGCTGCGTAAAACATGGAAATCCACACTCACCTTTCCGATTCGACCAAGAACAGCACATTGCTTTCACTATGCCAATTCTCTTCATGCCTAGATCCGCCACTAAGCTTCCACTGCTCAACGAGTTTGAGAATTTATGATACTGGATGGTTTTCATCACTAGTTTCATGTAGCTTGTGTGCTATACTTGTTTGTCAAGCTAAACTTTTTTTTGATGAATACAAAACGGTGGCTGCACGGTCACCCAACACTTTAATTGTCATTTTTTTATATTCCTTCTCTGAGCCGCTTTTTTACTCCATGTCCTTCGATTGAATGGTTTTATGGAAAAAATGAATTTCAAGAGTAAAATATGTTTCCAATAATTTTACGTCATTGACCACACAAGCCTTAGTATGGTCATCGTGTCTTTGTCTTCGGTTCATTTGGTAGACAAGCACGCCTGATATGCAAATTTAAAACAATCTCCAAACCTGTTATTTAGTATTGTTCACCATATGTTGGCTAAGATACGTTTTCAGCAACCGTTTGTTTTTTGCATATTAAATGACATATGGCTGAACAAAACTTCTTTCATTTGTTTTTTTTTTGTGGTATGTTTTTGGATGAACCGGTTCAATATTGAAAAAGTTACTGTGTGTGTCATCATCCTAGCAGAGAGCTTTTAAATCAAAGAGTCATTCAAGTTTCAACTTCTTCGTGGTGAAG'
p157
sS'AGAP004687_2000bp'
p158
S'NNNNNNNNNNNNNNNNNNNNNNNNNNNNNNNNNNNNNNNNNNNNNNNNNNNNNNNNNNNNNNNNNNNNNNNNNNNNNNNNNNNNNNNNNNNNNNNNNNNNNNNNNNNNNNNNNNNNNNNNNNNNNNNNNNNNNNNNNNNNNNNNNNNNNNNNNNNNNNNNNNNNNNNNNNNNNNNNNNNNNNNNNNNNNNNNNNNNNNNNNNNNNNNNNNNNNNNNNNNNNNNNNNNNNNNNNNNNNNNNNNNNNNNNNNNNNNNNNNNNNNNNNNNNNNNNNNNNNNNNNNNNNNNNNNNNNNNNNNNNNNNNNNNNNNNNNNNNNNNNNNNNNNNNNNNNNNNNNNNNNNNNNNNNCTGTTTATGTGTGTTATCATGTGAAACAGCGTGCGTTCACACTTGGATAAAAGCTAAAGTTTGCATCGACAGCAGCGCTTGTTCCCCGGACGAGAACGCAGGTGTGCTGTTTCATGAATGTGAATACGACACCGGTGCGAAATGAAAACGCGCACAATAGCAATGAACTCGGCATTCCCTCACAGGTGTTTCTCCAGTGCACGCCATTGAAAGGCATGCGTGCATCTTTGCGTTGAACGTTGTGTGCGCATGGGAAACTTTGTGTGTGCATTGAGCAAGCGCGCAGGTGTTCTTTTCAATGGGCGTTTTGTTTCATGAGCGCGGCAGTATTCTGTTCTGGTTTTGAATGGGTACATGCTCACTCGCTTACTCATTGATTGTTTTTATCCATACGCTTTTTTGCTGCTCGACAACGATGTGATTCATCGCGTATAAAAGCAGAACGCAGGCAGTGCACGGCATCAGTCGTGTCCAAGTTTTTAACCAGTGTGTTCTTGACGGTCTAAGCAAGCAATTTTTATTACAATGGGTCGAGGTAAACATTGTACCGATTATCAGCGCCATATCATTAAGCGAATGGCGGCTGCTGGCATTAAGCGCAGAACGATCGAGTTCGTGATGGAACGATCGCGCACTTTTGTGGCGAACGCGCTTCGGACAACCGAAACGCGCAAGTCACCCGGACGTCCTCGGAAGACCACGGCGGAGGAAGACCGTAAGATTGTTAACATATCGAAGAAACATCCGTTTAGCTCGGCACCAGAGATCCGAGGCAGACTGAAATTGGCGGTGACGCCGAGAACAGTTCAGCGAAGATTGGTCAGTGCCGGGCTACTCGCGCGAGTGCCAGTCAAATGCCAGTCAAACAATGTCAAAACAATGAAGTGGCCAGCCCTTAGCCCGGATCTCAATCTCATTGAGAACCTCTGGGCAATTTTCAAGAAGAGGCTGGGTAAAAACATACCGGAAGATCTGGATCATCTCTTCGATCACATGCAAGAGGTGTGGAGCAAAATTCCACCTGAAACGATCCAGAATCTGGTGATGTCGATGCGTCAACGCATGATTAATGTCATCGTGGGCGACGGCAATAAGATCAAAAACTGAGCTTATTGCATTTTTGAACAGGGATCACTGCTCGCGAGGGTGGTGGTCCTGCAAATTACAACAAAAACCTAACCCAAAACACAAAAAAACTACTGACAAATCTATCCGAAACGACCTACTTGTGAAACAAACACACACATCAATACACATTCAAACATACATACACACACACACACACACATGCACACACACACACACACATACACACACACACAAACACAAACACATACAAACCACACATAAACTTGACCCAACGGGTGCATGGTGCGTTAAAAAACCAATGCCCTATCTTTCTGTCCGATACTGTAGGATATGGGTGATGGTTATTTTAATTCTTTAATTGTTTAATTTTTTTGTCTCTTTGGATTGTACCCATTTTGACTAACAGACTAATACACTAACATCATCATTTTTTATGTTCCAGGAAACTTTTTTGACATGAAGTATAACGACAGTAGAGGAAGGATGGATTGATAACAAGTAATGTAAGTTAATGTTTATAATTAACGGTGGTTCGTGCTGTGAATGCGGGTCACTTTGTGAAT'
p159
sS'AGAP004770_1766bp'
p160
S'CTGTGAAATAAAAATAAAACACAATTAATACAAACACGGCTTCTTTTCAACGATTCGTGTACTATTTATGTGACATTAAATTAAAGCGAATGGTAGGTTCTATGGTATCTTCTGTGTCTGTTGAAATTAATAGTTACTTCTTATTCATAATGTCTATCCTGTGTGCACTGTATTGCTTGGGTATTCCTAAAACAGTACGTACGGGAGGGGAAGTATTGAAGTTTCCGTCATTAAATGTAACCGACCATGTAAACGACTATGTAATGTACATTTACTCTTAACGTAGAAAAGAAGTACGTAAAATACTCCACAGATTAAAAACATGACCCTAGAAAGCTGACAACAACACACACAATTATTCTTCAGGATCCAAATGGTAAGAAAATTCTTCTTCTTCTTCGTTGGCTCAACAACCGTTGTCGGTCAAGGCCTGCCTATACCACTTGTGGGCTTGGCTTTCAGTGACTAAATGATTTCCCCCCCCCCATAGCAGGATAGTCAGTCCTACGTATGGCGGCACGGTCTATTTGGGGATTGAACCCATGACGGGCATGTTGTTAAGTCGTACGAGTTGACGACTGTACTACGAGACCGGTTAAAAAAAGAAGAGTAAGAAAATTAGACCCTTTTTATAGAGGTATTTTTGATATTTTGTCAAAACATGTTCTAACTTAGCTGACCAAAGACCCATTTGGTCGTGCTAAACACAAACACATGTGAGTTCCCGGAGTTATTATATACACCCGAAATTACCGTATGACCGTAAAATATTACCTTGTCCTATTACAAATTACCAATTAAACAAACAACGGAATTACTAGTTGCCTCTTAGATCCCTTCCACAGGTACATTAAGAGAAACTGCTTCTGAACTAATACCGGTCTAGAACCGGTTCCGAATATTTGTCGATCTTGGAACTTTTACAGAACCCACACCGGCCCTGGAACTGATTCCAAACCCGTACACGTCTTAAACCTGATCCCGATCCTATATCGGTACTGGGATTGATCATGAACCCACAACGACCATGCAACGATCATGGCTGGAAGTGATACTGGACGCATCATACAATCAGATCCGGACTCGATCAGGCTCGACCGGACTCAACCGAGCTCGACTGGACTAGTTCGGACTCGCCTGGAAGATTTTTATACGGAATCGGATTCAGTTCTTCAGAGCAGATCCACGACTGTCTACCTGTGTTTGTCTTAGTAAAGGAATGGATAATTAACCTGTCCCGGTTGTAGGAAACGATTCAGTACCCAGTAACTGATCCCTCTACCACACTGGTCTGTCTAACTGTCTGTCTAAGAGATTATAGTAACTTTGGTCCTTATGGACTCTTTCGTCACATTACCACACTGGTCAAATAACCATTCCCTACATCAATTTTATGGAAACACGAATGCGCGTTATCGCTTAATAGAATTTGTACAGCAAGGTTCCAAAACAGCATACTTTTGCTTTAGTAGAAACCTTTGCTTTAATGAATGATTTTTACATTTCCATTTAATTTGTTACTATTATTTTATTGCTTATTTGTACATGGACTATATCGTTTTGCACTACATATTGCACTTTTAATATAACATACCATCTTGTTTCAAAACGTGAGCAATAATGCCGATTAACATTCATTTGTACTTTATCGTTATCACTAGCTTAACTGACTCTTAAAGTGGTACTATAAATATTGCGGGCATGATTAACGTAGTTACTTATTTCACAGGTGTCTGCAGCACCGCAGCACAGTGCATTCGTACATT'
p161
sS'AGAP004771_2000bp'
p162
S'CAACAATAAGTGAAATAGGTTTCGATGGCAGCGATATCTGATTTATTTTCTTTCTGCCTTTGCAAACATTTAGACCTGTATTAGTTTTTCAATAAAGTATCAGTTCTGAAATAATGTACCTACGATGTGCTGAGAAGGATAGTGCAGGGGGTTTTACACGATGATCTCTATCGTCCGCTGTTCAACGTACAGGGTTTAGTTAATAATAATGCGTTGGTTGATCATGAGGGTATCAGCACAATGGTGAGATGATCATTAAACGGAATGCCAGTAACCAGAGAGAAAAAGAGAGCGAGAGAGCGAGAGAGAAAGAGAGAGAGAGTATGACGGTCGGAGAGCTAGATTCGTTTTTATCCGGCGGTTGGAGAAACATGTCCACACACACGGGCGTAATGGAAAAAGTTTTTCTAATTTTCTTAATTTTCCGGAACCTGCGTTACAGCGTAACAGGGTGTGCTAATAATACACTACCACACTGATAGGACTTTGCACAAAGAAAAGGAAATGGAAGAGCGAAGGGGGTGGGTTTGCGAAACCAGTGCAGTAGTGTAGCTGCAAGCACAAGCAAAGCAAAACGAAGTATATAACTATAAATACATACTTCCGCAGATTAATTTACACCTAATGGGATGCGAGGTGAATCGAAGGCATCAATTATATACAGAATAAATGTGACACACTAATGAAACCAAACCAAATGGACCAATTTCAATTTAACCAATTCATTATTTCAACCCTCTTCGTAGCAAGCCATGAGTTCAAGTTGTGATCGTTTTCACCGCACGAATAGTATTGACTGTCAGCATTACTATTGCCAGTGCAATACCATACAGTGCGATGTTCAAAGCATTTTGCCGCTGTTTTGTCGGTAGTTTGCGCAAGGGGATTTGTTTACACTGGTAATTTGCATCACCCAGGATCGGCCAACCGTTGGCCACAGTTTGGAGACACGTCCTAGCGCGTTTGGCGTTCAGTCATCGGTAACATATCGCTCGTTATCTACGCATTATCCTGTGTGGTATGATAGTATGGTGCGTCGAATAGGCAAACTACTGTGTGGATTTGTTATAGTGACCGTACTTTACCCTAGCAGTGTCTCGGGAAACTCCCTAAAGGATGGATTCTTTCAGCAATTGTTTGAAACTCTGTTTCGCTCTGAAAGCAACACAAGACCCGCCACGGAACCCATCTTCATAACGCGTAACGACACGTTGGAAACTGCAGTGATGAATGTATCATCATCATCATCATCAGAAACGAGCGATCATGTGTCGCGTGCAGCAATTATCCTGTCCGAACCGGTTAAAAATTCTACGCTCTTCCTGGAAGATGGCTCATCTAAAACACGTCCAGAAACACAGTTTGGTGAAATGACGGATCAAGCAGGACAAGCAAGAAGCTCGGCCGTTGCAGAACGTACCGTGAACTGAAAGAAACATATTCTAAGTGATTACAGCAACAACCCAGAATGTTAGCGAACAGTAAGCATTATTGAGCTTTGCTTATAGATGAAGAGCTTAGAATGAGGATAAAAAATAATCTCATTTACTCTAAAAGAGATGTGAGATGAGTAATATGTCCAGTAACATTCAAATAAAGCTGTTAATTTAATCAAATATTCGTGTGTTGTTGATGAAGCTTGTCATGTGTGTGTGTGTGTGTGGGGGGGAGGGGGCTGATATAATTTCGAGGTAATTTTGGACGCTACTGTCCTTGTCTGCTGTTAGTCAGACGACGGCGATTTCGTCAACGAAAGTGACACCCAATTGCTAATGATTGTGTGAAATGTGGAACAAACAATACACTAGTTCGAATCTGTCGAAAGCTTAATGTCGTGTTGTCGCACTGCCATTCGCTTCAGTTGCATATTGAGCGCTGGAGAAGAAGGTCTCCAAATCCCGAACGTCCTGATAAAACAACATTCTATCACTAGCATGTATTCAAGACAGCTTACGGTGTGCTGGATGGTGGCAGGAGTACTATTGCTCTTCCATGGAACA'
p163
sS'AGAP004768_2000bp'
p164
S'CACGGACTGTGTTCTAATAAACTAAAATATTCACCCAAATTGATCTCCACCAAATATTGACCATGCAAAACGTAAACAATCCATCAATACATATACAAGCGGAAAACCATCTGTCAAAATCGGAGCCCAGGGGGGGGGGATCGCCAAAAGCGCTATAACTACACCTCATTATACATTCCACCTTGGTCACAAGTACAGGCGGTCCCCGAGATACACGGTACCTCTTTTACGTGGATTCGGAGATACGCGGTTTTCAAAATTTGACAGTTCTTGGAGCAAATTGTACTGATTTGACACATCCATTGTGAAATACCAAATAATTTCCGTGTTGATCGAATGTAAAATACCATTTAAAAAGGTTTAAAACTGTTCAATTCATTAGAAACATATCAAATAATTAATTTGGTGGCTAAAACCACCCCCTACTTGCAAAATTGCACGGAAATTAGAGATATTTTGGCTGGAAATCACGAGATTCGACTTACGCGGAAATTCGAGATACGCGGTATTTTGCGGCCGTTTTCGGTCCCCAATAACCGTGTATCTCGGGGACCGCCTGTACTTAGAAACGACGTCACCAGCGAGGGAAAATCGCACCTATTTGGAGGGTTTGGCGACGTCGTTTTTAAGTACTTGTGACGGTTTTTTACCTTTCGAGCGCGGGCTTTTGAGGGTGGCCGCCTAAAAGCTCACTTTGCTCTGCGGGCCAGTGTGGCAGATTATTTTGGCAGATTTCGGCAGGAGCACTGTTGAGAACGCGACAATTTAAATTCAATGAATTATTTTAACGATCAAATTCTTTTTAAGCTTTAACCACCAACTGCGAGATTCAAATTCAAATTTGAATGATTTTCTTTGACGAGCAATTCCCGGAATCCACACAACTGACATTTTCTACTTATTATGAACATTAAATTTTAACGGATAAGATTTTGAATTTAAAACACATGTAACATTTTTCAAGTGCCAGGTAAACAAAGGTGCATCAGCGCGATAAGTAACAAATAAGGATATCGTGCCTTGAAACAGCATCCCAAGCGCCACAGATTAAGCTTAAACGACTGAAAAATCAAATATCTGTGATTTTCGGTAGGATAAATGGAAAATCGGTAGTTTTAGGGCAGTCATCTGTGATTCGGTAGACATATAAAAAATCGGTAGGAATACAGATAAATCGGTATTTCTGGTCACTCTGGTTGTGTGTCGCACAGAAAAAGCTCGCTAGCTGTCAAACTCTGGAGCTTTGTTTGAAACGTATAAACTCGCATGCACCGATGGAAAACTCGCTTCACTTCGTCCGCGATAGAGATATGCACGCATTATTCTCAATAGATATAATAGATAGAATAGATAAAATGAGCAAACAATAAAACACTTAAATCCCCCCATAGGATAGCAAAATTACTTGACATTAGAGAAAAATTTTGAAATGAAATTCATATGCACAGAATTGGTCAGTAGAGTTTTGCTACAGTAATTGTGCTGGTAACAAAAAGCGTTTTGGAAGAAATTAGATTTTTTAATTAATATTTTGTTTATTTATCTCGAAAGGTTCGTTAAGTGTAGCCGCGGCATAAGTGAACGAAATAAAAACTTTAATAATTGAACGAAACAAATGTCTAAACTTTGAGCTTTTTGTGTTTTGGAAAGAACTTTTGGAATGCGCCACCTTAGATACAGATATCTTGGTGACGAAATTAGCTCGGTTATAGCACTGGGTATGGAACTTATCGAAAAGAAACTCATGCATTTTGCGATAAAATTGAAATGTTGCTACTTTTGATGAGTGTTTGTTACCAGTTTTGAAATATATAACGGTGTATTATCTGCTTTCCGATACTTCATGGTGTATTTTTCAATAAAAACATAAAAAAACTTGCTCAGAAATGTCATGCCTGTGATCGCTGTTTGACGTCGACGTAGCCTGTTGTCAGGTAGAAGCGTACGTAAATAAACAATTCGGATTAAACACGTGCTTGGTGCAGTTGGATTGCCTGAGA'
p165
sS'AGAP004723_2000bp'
p166
S'TTTTAAGCAATTACTATGAAACTATAAACCGGTAGAAAAGCTTAATCGGCTTCAGACAGACTTCAAAACATCGTCAGCGGTCATCCATCATAACATCACGCGACAACAATTTCAAAACCCAAGAGCATTGTGTAAAATGATTGAGGAAATATATATATATATATATATATATATATATATATATATATATATATATATATATATATATATATATATATATATATATATATATATATATATATATATATATATATATATTTCTAATTGTAAAATAAAAATAAAACGAGTAACTTTCTTGTCTGTGTTTTGCAACACTTCTAGACGACCAAAAAGTGTTCCGCGACAATTTTGGCTTCATTTGTCTTATTGTCGATCAGCAGCCGTAATGCTGTCTTTATTACAAAAGTACAGGGTTTCCAAGTCACTTTGCGATGTGAGCTGCATAATTCATCTCACTTGAGACGTTTTTTTTATTCTGACGTGCTACTTCATTTGGCCCGAAATAATTTACTATTCCGCCCGAGGCTAAACAAAACAGTCACGTGGGCGCGGGGCCAGTCACCTAGTCCCATGTAATACCAGACTACGGAAAGCCAAAGGAATCGACCCTACGCAATGCCCCAGGGCTACTTTAAAATGGGCTCATGGAACGTACGCACTCTAAGCGAAGCCGGAGCCTTGAAAAAACTTGATGATGCCCTAGTCACACTGAGTATGGACCTCGTAGCTCTACAAGAGAATCGGTGGCTAGGGAACGGTATGCACAACAGGCGTGGTAAGCATTGCTACGACATCTACTACAGCTGCCACGACCGCCACCGCGTGCTCGGAACGGGTTTCGCCTAGAAATATAGGCCTTTCTAGGTCGCTAGAAATATAGATGCGTGCCCCAGGCATGACCTCATAATCATACTGGGGGACTTCAACGCAAAAGTCGGTAGGGAGCCAATGTACCGCCAATACACTGGCTGTCACAGTCTGCATGAGCACAGTAACGATAATGGTAGTAGATTGGTCCAGTTCGCCGCAGCGAACAATCTGGTTGTTGGAAGTACCAAATTTGCGCGCAAGAAAATCCACAAGGTTACATGGGCCTACCCGGATGGAGAAACCCTCAACCAGATCGACCTCGTGTTAGTAAGCCGACGACGATAGTCAAGTCTGTTAAATGTCAGAACATATCGAGGAGCCAATATCGATTCCGATCACTACTTGGTTGGCTTAGTGATACACCGCTGGACATAAAAATAGGAAAAAAAATTTGTGTGTTTTTTTTGTGTGCACTAGGTGTGTCATCGCCAACAGTTCGAGGCGTACTGAATTTGCAATAGAAGATTTTTGCCTTTTATACTCTCATTTTTGGTGCGCTACTTATCTGAGTTTTGAGTGCCGGCAGCGTTTTGTGGCAATATAAAAGGAGAGCCAAACCGTGTTGCGCTTCATTCTTCCATCAGTGGTCAAGGTGAAAGGTTGCTATTTAAAAATTCCACAAAATCATCATGGGTCGCGGAAAGCACTGCACACCAGAGGAGTGAAAACACATTCAGGGGCTATATCGTGAGAACGTGCCGATCAAGACAATCTGCAAGGCGTTCGGCCGTTCGCGGACGTTTGTGGACAACGCCATTCGTAGCGAGGCTACGGGTAAATCGACAGGTCGTCCGCGAAAAACAACGACGTTGACACGCAGATTGTTGAGATGATCAGGGCGGATCCTTTCAAAACTTGCGCTCGTATCAAGCAGGAGCTTGGTTTGCAAGTTTCGGCGAAAACGGTGTCTCGCCGTTTTTTACGCCGCTGGGTTCTGTGACCGGAGACCGCGGAAGGTTCGTAAGCTGCTGCCGCCCCACGTAGAAGCGCGCATTCGGTTTGCCGAAGAACATTTAGCTGCATCCATCTCTTGGTGGAGCAAAATCATTTTTTCGGATGAGTCCAGAATCAATCTGGATGGTTCGGACGGCATTAAATACGTCTGGCGCCTTCCTAATCAGGCGTATCAT'
p167
sS'AGAP004692_2000bp'
p168
S'CTAAAATTGAGAATGTTTGTTTAGAATAAAGAGTTCGCAAAAATACGTCGCGGTACAAAAGTTGGTCGTCTGGAAGTAGTAGCCGGCATCGGGAAAGAAATAATTTCACTTTCTTTCTGGTTTTTTAATTGAATTTAGACTAGCGGCATACTTTTTTTGTACCGTCGCAATAGGTTTTGACTAGCATCATCTATTTTTGATTACGAGCAATGTATTATTAACTAGGAGCAATTTATTTCTGCATGTCCCTGCATGACAGCCTAAGAGTCTCGCGTTTATAACACCCGGTGTGACAGATCGACCTGAATAATAATCTGTGGATAATATTTAATTTCATCCACCTATTACTTTAAAGGATTTGTTTTACTGTATATATCATCCACAAAATACAGGGTTTTACAAGTCAGAATCGAATGTCAGCAAAACAATTTCATACGCTCAAGATCAAGGATAATGTATTTAGAAGGGTTGATTTTTATCGTTTTTGCTGGGCGACATTGTGGGNNNNNNNNNNNNNNNNNNNNAATGAGTTCAATCGCTGCAATGTAAAAATAACTAACGAATCGTTAGCTCACGCTGGAGAGTTTGCTGTGCAACGCGCAGAACCCTATTTCGAAGTAGCGCACGCAACACAGGTGGCCATGGCCGTGCATAGGAAAGCTTAAACCTAATTGCATAAAGCATAACTTTATGTGACACTATGCTTTTCCTTTCGTATGTCGTAGATTACATAGATAGGCTGAGCCGTCTGCGCAAGGGTGTGAGGGTGCTTGTGTGTGCAACACTGTCGCCAAATGTGTATTCTTCCGGAATGTAATGATCCATCGGTCAAAGAAAGGAAGGTGTTCATGACGGTGTTTTTTTTTATTGTGGAGCTGCATCCTTCCCCCTGCCTGCAGCGTATGCATCGGGCAGGATACAGTGTGGCAGTATGCAAGTTGCCCGCTGGATAGGAGCGGGCCCGCTGCACCCGCCATCATTCCGCACATCTTAACAGCATGCCCGTCGTGGGTTCTAACCGCGTATGAACCGTCCGCCGTAGCAAGGGGCGACTATCCGGCTACGTGGTACTCAAGTCCTGAAAAGGCCGGCATGATCGCGTAGACCATTATGCCAATAATAATAATAATAATAATAAGAGGAAGAACTTAGCATAGCAGTCCACCCTCGGGGAACCCCCTGTGCAAAGCGACGGAAGAAATCATTCCCTTTCGCGCATTTTCTCAGGCCTTCTTTTTTCCTCCAACGGCAAATTTGTCGAGCAGCGTTTCGAGCTACCCGTCCCTGGCTCCGCTTCCTACCCCTCGCCTGAGCACGCTGCTGAAGGATGTGGATGTTTGGATGTGTTGGTGCGTCAGACGGCCAATCGCTGTCAGCCGTCGTCCGTGCTTTATCCCTCCATAGCGCTATCTCTTTCACGCGTATGGTCAACGCTCGCGAGCTGTTGTGGCGCTCAAAAAAACCGTTAACAAACATTGCGGCGATGAAGCTGCATTTTCACAAATCAAACCAAAAAAGCGCAATGAGTTCAATCGCTGCAATGTAAAAATAACTAACGAATCGTTAGCTCACGCTGGAGAGTTTGCTGTGCAACGCGCAGAACCCTATTTCGAAGTAGCGCACGCAACACAGGTGGCCATGGCCGTGCATAGGAAAGCTTAAACCTAATTGCATAAAGCATAACTTTATGTGACACTATGCTTTTCCTTTCGTATGTCGTAGATTACATAGATAGGCTGAGCCGTCTGCGCAAGGGTGTGAGGGTGCTTGTGTGTGCAACACTGTCGCCAAATGTGTATTCTTCCGGAATGTAATGATCCATCGGTCAAAGAAAGGAAGGTGTTCATGACGGTGTTTTTTTTTATTGTGGAGCTGCATCCTTCCCCCTGCCTGCAGCGTATGCATCGGGCAGGATACAGTGTGGCAGTATGCAAGTTGCCCGCTGGATAGGAGCGGGCCCGCTGCACCGCCATCATTCCGCACATCNNNNNNNNNNNNNN'
p169
sS'AGAP004688_2000bp'
p170
S'NNNNNNNNNNNNNNNNNNNNNNNNNNNNNNNNNNNNNNNNNNNNNNNNNNNNNNNNNNNNNNNNNNNNNNNNNNNNNNNNNNNNNNNNNNNNNNNNNNNNNNNNNNNNNNNNNNNNNNNNNNNNNNNNNNNNNNNNNNNNNNNNNNNNNNNNNNNNNNNNNNNNNNNNNNNNNNNNNNNNNNNNNNNNNNNNNNNNNNNNNNNNNNNNNNNNNNNNNNNNNNNNNNNNNNNNNNNNNNNNNNNNNNNNNNNNNNNNNNNNNNNNNNNNNNNNNNNNNNNNNNNNNNNNNNNNNNNNNNNNNNNNNNNNNNNNNNNNNNNNNNNNNNNNNNNNNNNNNNNNNNNNNNNNNNNNNNNNNNNNNNNNNNNNNNNNNNNNNNNNNNNNNNNNNNNNNNNNNNNNNNNNNNNNNNNNNNNNNNNNNNNNNNNNNNNNNNNNNNNNNNNNNNNNNNNNNNNNNNNNNNNNNNNNNNNNNNNNNNNNNNNNNNNNNNNNNNNNNNNNNNNNNNNNNNNNNNNNNNNNNNNNNNNNNNNNNNNNNNNNNNNNNNNNNNNNNNNNNNNNNNNNNNNNNNNNNNNNNNNNNNNNNNNNNNNNNNNNNNNNNNNNNNNNNNNNNNNNNNNNNNNNNNNNNNNNNNNNNNNNNNNNNNNNNNNNNNNNNNNNNNNNNNNNNNNNNNNNNNNNNNNNNNNNNNNNNNNNNNNNNNNNNNNNNNNNNNNNNNNNNNNNNNNNNNNNNNNNNNNNNNNNNTGTGTGTGTGTGTGTGTGTGTGTGTGTGTGAGTGAGTGTGTATACCTATATATATATATATATATATATATATATATATATATATATATATATATATATATATATAACTATATTATAACTATATATAACTATATCATTATAGATTTTTCTATGTACATATATATTCCGATATATTTTATGTTTTTTATATACATTTTCAAAACTAATGAAAATTTATTTCATTGGAAATTGATCACAAAATATTTTTAAAATGTTACGTACCTCTACGTTCAATTCACTTCAATCATTTAAAGCCAAATTTAAAGCAAAACGTTACATTGAAAACAACATTCGTTCCAAATCCGCAGCGCAAAATCTCGCGGATTTCTCCCAATACAAACGGGAACGTTCGACCCCGAGAGGTAGAACTCATTCTTTCACGCGCTTCTTACAGGCTCTCAATGGTACGTTATTTTAAAACTGAGCGCCAAGTGAGCGCCTTCAGACAACCGCGGCGAACGGATCTCGTCGTTCGAAGCCCATAGTCGCCCCGGTTGTTAGCAGAGCCAATAGGACCCTAGGTTTAGTACGGAAAATGACGAAAGAGTTCAATGATCCTTTGTGTATCAAAACATTGTTTAACAGTCTAGTCAGGTCGATTCTAGAATATGGATCAATTGTGTGGTGTCCTCATACCGACCGCTGGATCAAACGCATTGAAAGTGTACAATGGAAAATGACTCGTTTCGCGATTAAAAAGCTTAGATGGCCAAATGGTGACACGCTACCCTATAGGACAAGATGCTTATTGTTAGGTGAAGAATCATTAGAGAAGCGGCGTGAAAAGGCTAAAACAATCTTTATGGCCAAACTGATAAAAGGAGAAATTGACGCACCTCGCTTATTAAGCAAAGTGAACATACACGTTCCTCGCTCTAGTCCTCGTTCATCATCCCTTTTGTATGTAGATAGGCATAACACTAATTATGCGGCAAATGAACCGATATCAGCAATGGCACGCAGTTTTAATTCATTCTATGCAGGAGTTGATTTTCACACATCTATGTCCACTAATAGTGAAGGTCTGCACTACATTAATCTATAATAACTTACGATATCTTGTGGGGCCATCATTGGCGGACAAGAATTATAAAATAAATAAATAAATAAATAAATAAATGAATCGATAGAAAATGCAATCAAACAAATTAAACCCTCATTTATCCCGGATCCGGACGGGGTTCCAGCAATAGTCTTACAGAAGTCTTTCTCAACG'
p171
sS'AGAP004761_2000bp'
p172
S'ACTAGCAGCGATTCGCAGACTGACTACGTAGTGAAGTATTCATATTCTGTTGGAATCACTGCACACTGCTCAAAGTTTTTGCTTCGTTTTAATGGACACGGTCGTGCAATATACTATTTATTCTTTTAAATCGTTTTACTTTTGCTTAGTGATAGACGTTTGGCGGCACTCATTTTCGGTATTTAATAAGCTCAATTAATATTTACGATGTACAAGAACGCAATATTTGTCTTAGATATGTACTTCAATATGACATAAAATATGACGATCCGCCTCGCGATCGTTTCAACAAACTCTGTTTTATTTTTTTATAGCTACCAACCACGATGGTTGTTCATTCCCGAAATTGTTGCGCCGTTTTTCTTTGTGTTAAGTAATTTAGAAATAAAATAAACAACATCAACATCGGAAGTATTTGTTTTATTGCAATAACGTTAGAAACTGAAATACTAAACTGAAACGTTGTTCAATAAAAGCAAGACAAATTTATTATTGACATGTTTCTCAATTTTCTCAATTGCATAACAGTTATTCCAATTCTTGATTAGAAACATGTCATCATTAATACTGGTGAAGTGAATAATTTGAAATAACAAGATTACCAAAGAGGCAGGCCCATGGTACAGTCGTCAGCTGTACACGACTTAAAACAACATGCCCGTTGTGTGAGTTCAAGCCTCATATGGCAGTCTCCCCGTAGCATGCACTGACTATCCGACTGCATGGTACTAATTAAGTCTCGAAGGCTTGTGCAGACCGAACATGATCGCGTAGGTCGTTACGCCAAATAGAAGAAGGAGTAAATACATTACAGAATTTTGTAGAAATGAAAATACAAGGATCGATGCTTTCATATTTTCCAATTTAGGATTGGTGTCACAGCGAAGCTTAGTACTTATAGTATTTTGAGCTACAACAAGTTATCGTTCTACACAATCGTCGTTTACTACTAAAACGTGCTTCATTAAATGAAAGCCAAAGGTCTTAGAACTGGACAACATTCTGGCAACACAAAACCCGCCAGATGCTTTTCACAAAACCTGGCTTAAATTTTCTTTTAAATGCTACTAATGACATTCTTCTTATTCTTCTTTGGCTCAACAACCGATGTCGGTCAAGGCCTGCCTGTACCCACTTGTGGGCTTGGCTTTTTCAGCTCAGCTATGCTACACAAACAATCTCGGTTATTGAGGCAAGTACATTGCGAACCCAATGTTAAAGAAAGAATTATTACAAATATAATACTTTTTTCTATCCATAATAAATCTGTCCATTCTACACTACTAACAAAATATTCCTATAATCATTAATCAATTAATTAATCGCTAAAAAACTCTACTAATCGCTTTTACGTTCAATGATGTTTCTGAAAAGAAAATTTCAATTATTTAGGATAGCGATAATGATCCCTGGATATGATGTTTTGCTAGTTTGATGCTGTTCATTATTCTCTGTGCTATCCTGTTGCGAATTTGTTCAGCTGAATTTGCTATAGAAATCTGAAATTGTTTATGGAACGCATGTTCGTAACGCGTTTCCTGTTTTATTATTTAAAATAAATACAAAAAGACGGCTTGCGATGGTACGTTGATTTTACGAAGCCTTATCGTTCTTAACGTTAACTTAACGTTCTTAACTCCCTTAAATTCGTAAATGCGGTTAGGTTTAAAAATGTAAGCGTCGTGGTGATCGCTCGTTTATAAAAGTTTATAAAATAAAAGTAGCCGGTCTCGTAGTACAGTCGTCAATTCGTAGGACCTAACAACATGCCCGTCATGGGTTCAACCCCAAATGGACCGTGCCGCCATACGTAGGACTGACTATCCTGCATTTGGGGGGGGGGGTTTCACTACGGGGTTAAATCCTTAAATCACTGAAAGCCAAGCCCACAAGTGGTACAGGCAGGCCTTGACCAACAACGGTTGATGAGCCAAAAGAAGAAGAAGAAGAAGAAGAAGAATAAAATAAAAGTGTATAAAATAAAACATCAATAAAAAATA'
p173
sS'AGAP004719_2000bp'
p174
S'AAGTTTGCAGTCGGGCGTGGTCTTCTGGTTCACGAATAACACGAAAAATTTTCGCGTCATCTGCGTACAGTAGATGATTATCAGCCGGAAGGATCAACGTCGCGTCGTTGATGAAAAGAAGGAACAGCAAAAGACCCGGGTTGCTGCCCTGCGGGACTCCAGAAGATGCATGCACTGGACTTGACATGTACGGGCCTAACTAACATGTGTTGAGCCGAGGCTGCGTGTTTTCTCCGCCCCCATTAGCACGGGGCACGTACCACTAAGCCAACCAAGTAGTGATCGGAATCGATATTGGCTCCTCGATATGTTCTGACATTTAACTGCGGCGAACTGGACCAATCTACTACCCTTATCGTTACTGTGTTCATGCAGACTGTGACAGCCAGTGTGACAGCACGGGGGCGTGAACGTTTATGAGGCTTATATAATAGAATTGGCCTCGCATGCGCAGGGTGCATAGCCTATCGTTTATAGCTTTGAAATCCATGATTGCGGATTTCAACCGGGGACCTACGGCGAAACCCGTTCCGAGCACGCGGTGGCGGTCGTGGCAGCTGTAGTAGATGTCGTAGCAATGCTTACCACGCTTGTTGAGCACACCGTTCCCTAGCCACCGAATCTCTTGTAGAGCTACGAGGTCCATGCTCAGTGTGGCTAGGGCATCATCAAGTTTTTTCAAGGATCTGGCTTTGCTTAGAGTGCGTACGTTCCATGAGTCCATTTTAAGAGTAGTCCTGTGGCTATTATGTAGGGTTGGTATCGTTGGTTTCGTTTCAATGATTCCTTTGGCTTTCCGTAGTCTGGCCACCATCCGGCCAAGGGGTTGGGTCAAGCCCGTGTACCCAAGCTTGGATATGTGGTGGCACACGTTACCACTCTGCACGACGAGGACGTGTCGGAATAGGAGTTGGATGGGAGAGCCTGTATTATCCCTCGAGGGGCTTCAGATCCTATCCCATTGCAGAGTAATGAGATAGGATCCGAGCGGTACACCTGCTATATATGTTATACATAATAAAAGAACACAAGCAAAACTTTTACAAACGATCCAAAAACAAAATGGTTGATTGAAGTGGAATTCTTATATACCCCCCCAATATACGTTGCGTAGCCCTGTTATCGGGCCATTTTATCTAGTAATTCAAATGCCTGCTATTTAAATTACCTTTTTTCTTTATTATCTCTTCGAAAATAATACTATAAGGAGAAGTTATACGGCCTATACTTTGTACAAACTGATATTTACAAAATATGATATTCTAAAGTCATGGGTTCAAGCCGAGAATAGACCGTGCCCCCATACGTAGGACTGACTATCCTGCTATGGTAACAATATGTCACTGAAAGCCAAGCTCAGTTCACTAGTGGGTACTGGCAGGCCTTGACCGACAGTGGTTGTTGTGCCACAGAAGAAGAAGATATTCTAAAGTTGCGATAAGTGTATCTCGATTTTTGGACAAAAGCTTTATTGTAAGTTATGCTACATTGTGTAGTAACTAGGGAAAACATGAACGCACTAAACTCTATTATTTTTACCACGTTGAAGGCAAATATTTTATTTATTTTAAGTTTTCTTGTTATAGTTTTTCCCATAACTTTGCTAGAAAATGAAATAATTATAGCTAAAAAAGGTATTATTTTAATCATCAGGCATCTCGCTTAGTAACACAGCGGCATATGGCAGGTAAGCAGTACAAATGCAGCTACCTGATACGCACACATGTTTAACGAACACAACTATTTGGTTCGGTTCGGTAAACGTCGGGTGGACGCCAGAACGCAAAGGCGCAGACTTTTTCATGATTTTGTATGACCTCGGCAGCTTTGGACCACGCGTGTGGATGCTCGCTATGAATCACAATACAATCATTTATAAAACAATTTGTAAATAGCAATTGTACATAACCAACTGATTGGTTGGATTCTGACCGTTCATTAACCATAGTGGTACTGATAACTGATTGTAGCTCGGGTTATCAACAACAGTCTATGTGCTC'
p175
sS'AGAP004731_2000bp'
p176
S'AACCAAGAAAAATGCAAAACAAGGTTAAGTAGCATATTGATGTAATTTTTGCCACTTCGAAAATAAGGTTGAACCAGTGTCACAGAGATTCGTTGAAGTTTTACATGATACAGTTTTAAAGATATGATATTTCTATACACTTTTTCTGAAGAAAGCAAGGCGATTGAATGCGTATTTTTACTAATATAACAAAAAATACAAAAATGCTTCACGTGGGGCAAAATGGGCAGATGCTTTTGACATATCGCGCTTGGTGAGGGTATGGCGTTGTATTTGTCGCCTCAATAATGATAACAGGCACAGCTTCAAAAGATTCGATTTTGTAGAATTAAACGTGTAAAAACTGTTTTAATTTTGATAACATAGTTTTGAACGATTTTTAAGTGCTTTCCTGACCAGCAAAACAAAAGATAGAACGAAAATACATTTCACGAAACGTGCGCAAAAGCATAGACCATTACCTAAGCGCAGATGTTGTAGCCTATATTGCCCCAGTGTTTTGACGTTTCACAGTTTCAACATCAACTTTTATTTTACACTGTTTTCATGATTTTAAGTAGTTTTCATTCTATGTGGTAATTTTAATCCACAGATAAAGAGTGGAGGCATACAATAAGGAAAGAAAAGTTGTGTTTTGTGGCATATTCAAAGGAATATTCAGTAAACTGCTAAACATGCCCACTTTGCCCCGCTTTCCCTAGTAATAGGTCAAGTAGCACTTTTTACTGTGTTGTGCGGTGCTACCACCTCAACATCCCATCCCTACCAATCCATGTATCCCTTAATTTTTCTCATTCTACAAAGAACAAGAAAGTGAAAAAAATCCCGTTGGAAAAAAGGTTTTAGCGCACGTGACGAAAGAGTCCAAAAGGACCAAAGTCACTATAAATCTCTTGACAGACTGACGGACTGGCTTGACGGCTTGATAGGCTGAACGACTATGAAAGGCTGCACGTCGTTGTATCAGGTTACTGTATCGTCTTTTCACACATACGTAGACAAAGATCCTTCTGAGCATCTTCCTCTCGAACGTGGCCAAGAAGGGTTTCGTTAGATGTTGACTGTTGTCATGACTCGGAGGCGTTTGTGAGTACGATATATGTACGACGTGGATTATTGTATCTACCTGATAAGTAACGCTGGTCATACTCATTCTATCGGTTATCATTTTACCAGGGATTAAATTTGTTTTATAAATAGCTAGTAATGAAACCTACATATAATTAATAACACAGTCTAATGAATGCATATTGAGTCTTTGAGTTTACGTTACCTGTGTTTAAATTGAGGGTATCCATTTTGCGCCGCATGCCTCCTTTATCCGAAGCTCTCATAGCTTTATGTGCAATATTTCTCTCCCTTGTTGGCTTGCTCACGATCGAGCACGTCGGTGTGACATGGCCCGATCAACAATCATTCTTCAGGATGCTCGGCCTCCCATTCATGTAGACACCCGGTGTCGGACAGGTCTCGCTTCACCTGATAATGTGCAATGTGATTATGTGCAATGTATAGTTCCTCAATATGACTGCATATGCTCAATGTAGCTCCACACTCACAATGTAGCTTTACAAACTTTATCGAGTTCCTTATACGCAATCCGATGTATCTATAGAAGTTCCCCTAAGATGTACCTTAAGGTTGTTTAAAATTTAATTAACAGTGAGTACAGTAATGTGTAAAAAAAATTCCGTGCACAACAATAGTTTCGACTAAACTGATAGTCTCAGATCATATATGCTGTATGTTGCTGCAGTCGAAGGGTGAGCAAGCGGCCAAAGAAATAAATTCCTATACAAACACGAGCGACAATCTCCTGTCTGTGATCTTTGATTGGCAACCACAAACATTCTCAATGGCACAGCATCAGCTTCGTGCCTAGGACTGCAGCGTGCGTCGTACGATTCGTGAAACGTACACAACAACATCATTGGTAGCTCAGCAGTGTGTCCGTGCGCGTGGGGTCCGCCTGCCTCGCGCATCAGTTGACATTTGACTTT'
p177
sS'AGAP004758_2000bp'
p178
S'AGCAACGAATGATTTGATTTGAAATATTTGAGTAATGGTCGTTGGTGTTGATACCCACGTATCTGACCACACGACCATTCATATAGATTTTTGCTCAGAAAGTTAGAAGACTATATAGGTCATGATAAGATGAAACTTGTCGAAACACATTGCAAGAAAAGGATAGCAATATAATGATGAGTTGTAATACGCCATCTATTGATCAAACCAATGAAGCTGTGGAGCTTCCATTTTTTTTCTATGGATATTCAATTTTCCAGTCGTTTAAGCTTAATCTGTGGCGCTTGGGTAGTTGATTTACTTTTCATCCCAGTATCGCATAGATACTGGATTACGCATTCAAATATCTTCAAAGTCGCTGGCTACCCGGATAGCCCGGTTGCGTGGATTGTGATATTTTTTCAGTTGCCAAAGACACGACTAAGTATGCTACCATAGTATACACACTATGCAGACCAAATCATGTATTCACCGATTTGCCTTGAAATGTTTTAATAGCATGCTGATGTTTTAAGAGTGTTCTTTCGAATTCAAGAAGTACTGACATTCTTCCTAGATTAATACGAAAAATGCCCATTGTGAAAAAGAAAACCATACTGAATGACTTACATAATGCATTCGAAACCAACCTAAGGAGGAAATCTAGCAAAACGATTCCTATTCAACTTGTTGGTGATGAAAACAGTAATAAGTATGTACTTTTCGTTGGTGGCTTTTCATACTAATTTGTTATCGTATCTCATTTCTAGAAGATAACAATTCCCTTCATGATCCGCTAGAAACTATATATGAAAAAAATCAACAAACGGAAGCTGCTGCTATTGAATCTGTAGCGTCGGTAAAACCCGTTTCAAAACAAAATGAAAGTACAGAGAAACATCAGAACAAAGTTGCTGAATTTCAATTGCACATCGCATCGTACATCTCCAAAATCGTGTCCTTGCGTGTAGCTAAACTCGCTGCTAACGACGAGAAGATTACTCAACTAGGAATGTCCTTTTTTGACGATTGCATTGGTGCTATAGATATTACCAAGCTTGTGCAGCTAATCGATAAGGCTCGAACAAATTTATCAAATGAGCGAAAGCGGCTTTTCGTAGTCATGAAGCGATTAAAACGAAATGATATGCAAAACTATCAGCTCGACAAACAAATGCAGGATGTTAGCCTGGAGCAGTACTACGAGCTGAAAGCGGAAGTTAACCGCATCGGAGAAAAACTCGAGGAGACACACAAACGGATGAACAATTCGCGGCAACAGTTTGAAAACGATGTAGCACGTGCCACTCACGTGCGAGAAAAGTTGTTTAACTCACAAAACCTAATACTGTCTGTAATGCAGGACGTTTCTGGAGTAAAAGGTGACTTCTCTATCTACAAACAAACGCTGTGCGATAGACTGGAGCTTAAAAAGCAGCTACGCAGGAAAAATGAATCCCTGAAACAACGTGTCCATTTATTCAAGCTTATGCCTTGGTACGGACAAACAAAGAAACAGGTAACTGTTATTTCCAAATGAGATAGAGTAATAATTTACTAAATTTAATTTATATTGCAGCTAGAGCTCACCAAATCTTTTGTGAAAAAATTTGAATAATATACCGCCCGAGTTGAGAAGTCATAAGCAATAAAAACTGCAAACTATTTTAATAACGCACTTGTTTTTATCTGCCGAATTTGGAGGGCCCTTTGTCATTTCGTCCATTTTATTTGTTGCAAGAAAATCTAACCGAGAAAAACGTAACCAAGCAAACGTAGCTCCACCATCAAAACACTTCATTAATACAAAATCGCTCTCATTCTATCGAAACAGAACGTTTTGGAAACTAAAATTGGCTTTCTTTGAAGAGACCTTTTTGGGTAGAGATTGATAGTTTGTATTTTGCAATTTTTTCCTAATGATTTTTGCTAATGAATCTGATGGCGAAGCGCCCAATGTATGAAGCGTTTCTGAAGCGTGTCGTCAACTGTCGCTCGGAAATACGCTCTGTCACGCCATA'
p179
sS'AGAP004745_358bp'
p180
S'CTGGAAAGAATGCGTCAAGCGACGACTGACGCAGACGATGATGTTGACATGCGGCAAATTAAACTGGTTGACGTTTCATGGCATTCAATTTTGAAGGTAACTTACACGATCTACAACTGTTTTTAAACGATGATGTAGAGTTAATATGGATGAGGTAAAAATAAGGCATAAAAAGAATGTAAGTATACGTATGTTAACAAATATGCATATTCTAGCAATATGTAGTTTAAAAAAAAAAAACAGATTGAAAGTGCTCGCTCCTTGTTGGGTCGTTCTGCAACATACGTGTAAAAAAGGCTGTAGCTGTCAAACGAAAGCTCTTTTTAGTTGAGCGTTGGATATGTCAATTTGTTGATAC'
p181
sS'AGAP004746_806bp'
p182
S'CAAAATTTTGCAAATTTGTGAAAAAATAACACGAGTCGTGTTTTTTTTTCGTGTCTTCAAAGTGAAGTGAAATTTCGTTTTATGTTGCAGTGATTAAGCTTATGGGCCAGTTTCGTGGTACATTCGTCAACTCGCACAACTTAATAATATGCCCATCATGGGGTCAAGCCCCGAATGGACCATGACCCCACACGTAGGACTAATTATCCTGCTATGGGTAATCAATAAGTCACTAAAAGCCTAGCTCATTTGTGGTACAAGGCAGGCTTTGACCGAGAACGGTTGTTGTGCCAAAGAAGAAGAAGAATTAACGTGTCCGACTTGAAAGTTGAAGCAATATTCCATTTCACTACGACGATGATTAGTGGGGGAGAAAGTGGCAAAAGAGCAAGACCTCAAAGTCTCTACAAAAATTAGATCAGGGTCAGGAGTGGGGGAGATTGTATGAATAAACCAGGTATATCAAACTGGCGGCCCCTGAGGGTTCTGTATGCGGCCCGCGACGCAGCCAAGTTATGATTAAGTCCAGTCAATTTTTGAAATGGATCTCCTTTATCATCGATATTCGACGTAGATATCATGAGCCGCGAATGGATTTTCAGGGTTAAAAAGTAGCCCGCCGAACAGATGAGTAGTTTGACAAATCTGGACTAAACGATCAATTATAGATAGCTATTTTTCGGATTAAATGATCTTTAACAAAGACTAAAACTTCACACATGGAATAAATGTATTTATTTATTCATTATTATTATTCATGCATAAAGTAAAGTATATTTGCCTGCTTCAGCCATCGCTACGATTAT'
p183
sS'AGAP004757_143bp'
p184
S'ATGTAAAATTGTATGAGTATTATATCAGCTGTACATGATATCACAAATAAATTGCTTCGATAGATTGTACAATCTGAAATTACCTTCCTTTCTTTTCCAGTTTTTTCCGATAAGTGATAAGAAAAAAGATAACCTTATACTTC'
p185
sS'AGAP004680_2000bp'
p186
S'GATGAATCATGTTCAGAATATATCTACGCTATGTGCGAAATCGGGAAAAAGGGACATGTCGATGAACAATCCCTTTGTGAGTACATAGTACAAGGAATAGACGATGATCCAATGAACAAAACCTGTTTGATCGCTGCAAAAACGATTAAACAACTGAAAAGCCAAATGCGAACTTATGAGAAATTGGCAGAGCAAATTCGCGAGCAACGATCTAAACGTCAAATTCCTGCTAAGAACCCTGACAGTAATAAAACAAAATATGCACCTCCAGCCAGTATGAAATGCCGTAGCTGCGGTAAAACGGGACATATCGTCAAAGNNNNNNNNNNNNNNNNNNNNGGTCAACCCATTTGAACCATTTTGTCAAATCTTCCGCAGAAATTTTTGCTAAAGCTGCTATTACTATTCGGTTTACTCTTTCTGCTTGACCGTTTCCCCTTGACACAAACTGTGTTCGTTTTATCGCTACTAGATCGCCTATACTATGCCCTGGCTCTGGCTTTCGTTTTTTATCGTACTGCTTTTTATACTCTAACTGAGCCCTTCCGATTGCTTCTTTTGCTTCTAATCTTATTTCCTGTCGTTCTTCCTCAAATCTTTCGTACATTTCTTCCTGTATTAGTTTCACCAATTCCCCTGTTACAATATGTCTCATTCCAAACATGATCTTAAAAGGTGTTTTCTTAGTTGATGCATTAAAGTGAGAATTCAAAGCTTGCTGGACTTGGTCAACCCATTTGAACCATTTTGTCAAATCTTCCGCAGAAATTTTTGCTAAAGCTGCTATTACTATTCGGTTTACTCTTTCTGCTTGACCGTTTCCCCTTGACACACCTGTGGTACACACTACATGTTCTATTCCATTTTCTTTTATAAAATCAGCAAAAACTAGTGAAGTAAAGGCTGCTCCTCTATCACTCACTATACGTTCTGGACTTCCAAAAATCGCTGTCCAATTTTCTAGCTTCCTAATCGTTTCCTGGGCATTAGTTGTTTTAGTGGGGTACAGCCATTCAAATTTTGAAAATCCGTCCACCACTGTGAGAATATATTTGTATTATTTTCCTGTTGCATCCATGGGTCCGACTTGATCTACATGCAATGTTTGCAAAGGTCTATCTCCTTTCTCAATGGGATGCAAATATCCTTCTTTATTCCCTAACTTTTTATTGTACATAATGCACCGTACGCAGTTATCAATTACTTGCTTCAATTTTTGTTCCAAATGAGGTATCCACTACTTTTGCTTCAACCCATGAACAGTTTTCTGAGTGGCGAAATGTCCATTATTATGCTCAATACTAATTATTTCCTTTTCCATCACTTTAGGTATAACTAATAAATCAATACCGTCAATAGTTTTAAAAACTAATCCGTCTTTTAGTTTATAAGATTCGTAGGACCTGCTAGCAAGTATCTCTCGTATAGCTTTGAAAGTTTCATCTTTCTTTTGCGCTTCATCTATTTTCGCTGTTACATCGTCGTTCACTATCATTACACGCACAGGATAACGACTTAAACAATCTACATGTTTCAATCTGGTTCCTGGCCGATGTTCTGTATCAAAAGTAAAGTCATGTAAATATACTACCCACGACAACACTTCCCGAGGCACTTCCGATTTTTGAAACGTTTGCTTAAATGCAATACAATCAGTCACTAACTTAAATCGCATCCCCAACAAATAATGACGAAACTTTTTCACTGCTAAGTAAACCGCTTTCGCTTCCAAAACGTAGCTATGCTTTTTCGCTTCCGCATCCGCCGTCTTCTTACTCCAAAACGCTACCGGGTGCAGCTTTCCGTGAAAACGCTGGGTAACACCGCACCATACCCTTCCTTCGACACGTCTGTATGCACTTCCGTCTCCGCTTTCCTCTCTTATAGCCGCAACACCGGTTCACTCGCCAAAATCTCCTTCAGCAGATTAAAAGCGTGCATCTCTTCGTGACCCATCACGAACACCGCATCGTTACGCAACAGATTGGTAAGAGGTCGAG'
p187
sS'AGAP004681_2000bp'
p188
S'CCACATATTCACCGTCCTCGTTAAAATTTCTCAACCCGTGCCAGGTGCTCATCTCCTCGGTTAGTGGCGGCTGCGATGGCTTGCTGGTGGGCGCTTGGTCTTCCTGGTAGGCTGCTTGCTGGTGGGCGGCTTGGTCTTCTTGGTAAGCGGCTGCGACGGGTTGCTGGTGGGCGGCTTGGTCTTCCTGGTAGGCGGTTACGACTTCCTTGTAGGTGGGCGTCTACGGCGGCTTGCAGGTGGGCAGTGTGCGTCTTCCTGGTTTGCGGCTTGTAGTTGTCGTCTGATGAACACTTGATCGGCACTTTGTCTTTTATATCCGAATTATTACTTCACTAATGTTTTTTTTCTTTTTTTTTTCTTCACTATTTATTTAGGTAAAGACAACATCTTTACAGCTTGTTCTTTCGCCTGATTTTTCACTATTTTGTACACTATTTTGAGCGCTTTTGCAATAACAATCAACGCGAGCAGAGCCAAAATCAGGTTAAGTTTGAACTCGTGTGCCTCGTGTTGTTCAGTGTGTATGTTTTGGGTTTGAACGATGGTGAGGTCGTTATTGCCCTTAACGTTTGTTTCCGGTTTTGAGTTGTCGTGACCCATAGCTTATATGTGTTATGCCAGAATAAATATACACACTCTCTACTTTTTTCAGTTTACTGACACTGCGATTTCACTTCCTGCACTGCTTTTCGGGTACTTGATACTTGTGCGCAACGATGTGTTTTTGCTAACTTTTAAACTTGTGCCACTTTTAGATTGCACTTGGAACGTTTTTATTTATTTCCCGCGTTTGGTGTTACCTTATGCCTCAAACTGCACCACTCGCACTTTGTTAAAAATCGATTAAAGATCACTTTATTGCTTATTAGATTATTGGGGCACTGTATTGAGTTCTCACGATAATGGTATAATGGTTATGTGGTAAAAACTGACACCGTTCTTTCTTTAACCTTTTTCTTTCTACTGTATTTTTTTCCATGCACCGCACTTTGCGTATAACTTTTTCTCCACAGCACTGCACTTTTATTTTTTATTTTTTTCACTGCACTTTAACGTTCTTGTAGCTTTGTTTTTGCTACGCTGTCACGGTCGCCATGTGGTAGGTTCGGAGACTGTAACGGTCGCCATGTGGTAGATTCGGAGACTGTCACGGTCGCCATGTGGTAGGTTCGGCCGCGCTTCTCAAACCGTTTCGGTGAGTCAATGCGCGGAGCACAGTGAAAGGGTGTGGGACGAGGAAGGGGATCGTACAGAACGCGACACCAAAATGTAAACACTTTGTATTCTTCACTTTGTATTTAGTATTCTGAACACTTTGCACTTTGCATCAGTATTAAGTATGGCTATCGAGAATGGTATCAAAAGAGAATGGTATCAGACGATCAAAAATGGGTTTCGAGCATGTGGACTGCATCCGTTCGATTCGAATGCAATCGACTATTCTAAGTGCATCGCAACTTCAGCAACTGGTGCCTTGATTACGAACGAAACAACCGATGTTTTTGTCACACCTGAAGCTTTTGAAGAATCAATCCAGAAGGAATCAGATACCACACAACACGGTAGTGTTGATCAAAGCGTTACCATTAGTATGGATAGAATAGTTGAAGCATACGATATAATCGGAGCTGAAACTATAGCTAAAATTGAAGGAGACGTCAACAAGCTATCCCGTGAAGAACGTGTGATTCGTTATTTTTATCGTGAATTTGTTCGTCCGCATATTGGATTTCATTTCATTTCATTTCATTTCATTTCATTTCATTTCATTTCATTTCATTTCATTTCATTCATTTTACAATATCCGCCATCAAGGCTAAATATAATAGACTTAAAACTAATTTAATACTAACAAATAAACAAAATAATTCATGAAAAACTAAGCCTAACTAATCTAGTCTTGACCTAGCAAAAAAGAAAAGAAAAAAAACAAGAGTAGAGCGTAGAGACTATCATAAACTTAACAAAAACAAAAAAAAAGAGAGTAATAGAAAACTAAG'
p189
sS'AGAP004716_2000bp'
p190
S'TGGATTGTACAGACATGTTCGTTAATTTGTGGTATATTCAAAGGTGGTTCGATTTTTGAACACCACATATTGTTTATTTCTTATTACATTATTTCGTATTGTCGAGGTTGATTGGTATATTGCAGGTGTATACAACAGCTTGTAAAGAGTAAAATTTTTGTAGTTACCAATAATTTTGGATTATTCTAACAGGGAAAACAAGCCAACTACTGTTCGCGAGTCGTACTTTGCGATAACTGTTTTATTTATTTATTAAATAATATTTGTTTATTTATTAACTTATTAATTTATTTATTTACTCATTTATTTATTCATTAATAAATAATTTTAAAAAAATATTTATTGATTAATATATTAATAAATTAATTTATTTATAGATTTTATATTTAGTTATTCCTTTATTCAATAATTCATTTCATTTCATTTCATTTCATTTATTAAATTCAATATCCGCAATCAAGGATAAATAATGCAGACATAAAAATTAATTAATAGCTAACAAACAAACAAAATCAATCATAAAATACTAACCTTAACTAAACTAGTACTGAGCTAGCAAAAAATAAAATAAAAAAAATATTGGATAATCTTAGGGACAAAAGAGAGTAAATGAAAACAAAGAAAAAGAATCAAAGAGAATTAGAAGAAAAAATACGGTTACGGAAAGAGTTAAGAGAGCAATCGAAATCAAAGAGATAGTACAAGTGGTTAAACAACCTGAAACAAGATAGAAGAGGATCCTTGAAAGCATAAAGAGTGTGACGTGTTTCAATTGACAGAGGATCATGGGAACGAAGAGAACGAGAGGGAACATACAGCACGATGGACGAGAGTAAATCGGNNNNNNNNNNNNNNNNNNNNNNNNNNNNNNNNNNNNNNNNNNNNNNNNNNNNNNNNNNNNNNNNNNNNTTTGTAAATGTTAAGTGATTGGCCATAATTGGCCTTATCACTGATCTTATAAACTAAACTTATAATAACATAAAGCATCACGGTACAATGTAACATCAGCACAAAATAAATAACACAGAGTATCACAGCAAGAAAAACAGGTTAAATTAGGGAATTCCAGTCAAAAGAGTCATAATGTGCATTAAATCTGATAGCCATCGCAGTCAAAGGTTCATTATCGCTATATGCACGTCTAGTTTGGTCAACTCTTAGTAGCCTAAAGTTTCTTAAAATACGAGCAGGTACGTGGAAATTAACTCTAGCTAAAAGGTCCGGTGAATCTATCTCGCCTAGGATGATTTTTTTCATGAACAATATTTGCGCCGTTTCGCGACGAGTAGCGAGAGATTCGAGTCCAAAAATTAAACACCGGGCATGATAACTAGGTCTCGCTGCTACGTTACGCCAGGGTGTGAACCGTAAGACCAAACGGGTGAATTTTTTCTGCACTGACTCAATCTTATTCGACCATAACGACGACGATGGGAACCAAACTACTGAGGAGTATTCTAAGATGGATCTGACTAGTGATTTGTAGAGTGCGACAAGACAATGTGGGTCGGAGAATTCTCTCGACTGCCTGCGTATAAATCCTAGCATTCTGTTCGCTCTATCAATAATTTCGTTATGATGCACATGAAAGTCAAGTTTACGGTCAAGAGTAACTCCTAAGTCTTTTACTGCACTGTGTCGTTGTAATTGTGTACCGGAGATGCAGTAGTTAAACACTATTGGACAATTAGAACGGTGAAACGACATGGACAAACATTTATCAACAGAAATTTGTAGGTCGTTGTTCAGACACCAGTCGGAAAAAGAGTCGATCGATGCTTGCAGGACATAACAATCACCAAAACACCTCACAGGAAAAAAAAGTCTAAGATCGTCCGCATACAATAAACATTCAGATTCCCTTACTACTATATTTATTTACTCATTTATTTATTCATTAATAAATAATTTAAAAAAATATTTATTGATTAATATATTAATAAATTAATTTATTTATAGATTTTATATTTAGTTATTCCTTTATTCAATAATTCATTTCA'
p191
sS'AGAP004733_627bp'
p192
S'CAAACATAATGAGAGCTTTTAGACGCAACTAAACTCAAACTTACTAATTAAAGTAACATTAAATATAATTCTGCCATTTTCACATCTTTAGTAACATATCACAAATATTTTGGACCAAAAATATCACATACTGTTATGAACACGTAGTAGGAAAACTAAAAAAAATATATATTTTACCTCTAGCTCAGATTTACTATTTGAGATCACAATTGCATTTATGCTTAGCTATATGATGAAAAAATATCCAAAAAGTAATAAAATGTAATTATCATCAGTTGTGAAATCAAATCACACTTCGATAGCTCATTCTCAATATGTACTAAGATTGTGTTGTTTAATAAATTGCCCCATTTTTTTACACTCCAGCCGATAAAATGTCATATTAATTGATAATAAGTCAATATAATTACTGCTGCTAAGCAAAGCATTTAAACAACAGATGAAAGAGATAATTACCTTCTTGAATGTCAGCACTGTTAGATTCGTTGATAGTTTCATCAATACGCTTGTTCCGTGAATCGCTTTCAAAGAAAAGATTACATTCAATTAACAAGATGAAAATTTACATTCCATATGCAACAAATAAAATATGCTTCTGCGATACTATGCGGAACAAATGTGTTATAT'
p193
sS'AGAP004734_2000bp'
p194
S'NNNNNNNNNNNNNNNNNNNNNNNNNNNNNNNNNNNNNNNNNNNNNNNNNNNNNNNNNNNNNNNNNNNNNNNNTTTGAAAAAAAAAACAATTAAATTAAATATATTAATATGTTGTTAAAAAACCAACAATAAAGATATCCTAAAACAAAACAAAAACACTAGCATACATATACAAAAATAATAATGACAAACCAACCATTTTCACTGACGGAAGTTCGTCCATAAAAACAACAATTGCTATTAAAAAGCACTAAAAATGGTGGTAGAATTAAAAATTGAAAGACCAATCATATATACAGATAGTCTAACTTCTTGCACTGTTCTAAGCAAAATTTCCTAGGACACACAAATTGAGGATATATTTTATAATAGCTTAAACATGCAAACAGAACACATACTCGAATTGGATGGATCCTTTCATACTTAGGAATAAAAGGGAACGACATTGTAGACGATTTAGCGAAAAAAGGATACCATATCAAACACGACAAAAAGAACAAAATCAGATACACGCAATCAATATATTCAAGAATGAAATTATAGACAAAACACAAACATGGTTTAAAAATACTGCACAGTCAAAAGGAAAAAAATCTTGTGCTTTCAAAATGAATTTAAAAAAGAAATATGGCCCAAACATATACAACTAAAAGGCAATGAAATAAATACTATAAATCAAATAATATCAGGACACGACTGCTCAGAATATTGGCTCAGCATTTTCAAAATAACAGAAAATGGATCATGTGAAATATGCCTGACACCAGAAACAGGAAGACACAAAATTTTCGATTCAATTTCATGAGTATTTTTACAAGATGCATAGAAATCTCTATGACACAAACAGAAACAGAGGGTAAACATAACAAATAACCAGAAAAATAATACTGATCAAAAAGAAAGAAACAAATCGAACACAACACTAAAATTCTTTCTCCACAAATATATGAGCAGAATTCGTAATCAAATAATATGATCAGTAAAAAAACAAGTAACAACATCACTACTCGCAAACATAAATGATTAAATTAAACTAAATTAAATCAAAAACCATAGAAAGAGAACTTGTAGGAAAAAGCGCCTAAAGAAAACAAACCGAATGCCGCCCAGTAGAAGGCAGACAAATTCAATACAATACAATACAAAAAAAAAAACCGGAGGAAATGTGCACTATTCCGATACTATGCGAAGAAAAGACTAAGCAACTAACGACATAACATAAACCAACCTGGACCTGAAAAGTGATATGATACAGTACAGTACCACTCTCATACTCAGATGATACATCTTTGATTATACCTCCCAAAAGAGAGTATAGGACGTTGTAATTCATCAACCTAAAAGAAGAAGAAGGAACGCGATTAGCATTGATCCCTTAAGATGTTAGTAAGGTCCAAACTTAAACTTGTTTGTAATGGAATGTAGTATGTGCAATATTAATGAATTCAGAACGTCCTCCTTCATTATTTGATTGTCCAATGCCTTAATACACTACATCACTTTATTGGAATATTGTTTTTTTTTTTTCTATTTGTACATAACTAAACAAGAGCCATTCATATGCTAATGCCATGATAACGCGTATAAATTTTTTAAATCGCCTAATGCTAATTTCTATGTTACCATTTTTTCATGTTTTTTTTAGGACGGCTGATGCGACGCAGGGTTATAGTAAGGGAGGAGGACCGTCATCTTCACAAACAGTGCCTCGATCCGCGGCTAGTCCATTATCTCCACCAAGGCCAGGCCCGGGAGCCGCTGGTGCCGCAAATTATCCATCGTTTGGTGGTGCTCCGGCGAGAGAATCACCTCTGCGATATGTGCAAAATAATTCGTATGTTCCTGCCTTTATTCGAGATGCGAGCCCATTCAGCCGTGTTCCACAGGTACAGCAAATCGTCACTGAGTACCGGCAAGCGGTTCCTTCATCGGTTACCGGCGGAACAAGCGTGGTGCCCAATAGCATAGTCGTCTCTCCTTCTATCAGCATTGTCAACAAT'
p195
sS'AGAP004691_2000bp'
p196
S'TTCCAAAGAGTACCATGTGCCTGTTAAAAAGCTCCATAGTTCCGCAAAGTACCGTCTATCTCTTAATCAGCCACAAAGTACGACATCGGAACGATTTTTCGTTAAACAGCCCTAAATCAGCTATAAAGTACGAGCTGGATATTTGGGAGGGTAACTGTACCAGTTTTCGGCAGTGTACCTATTTTCGGCAGGGTAGCTAAAAACGTGAAATTCTGCACGAATGTGGTAAAAAATTTCACACAACAGTACAGTTACTGGTACAGTTACCTGGTGGAAAACTGGTACAGTTACCCTATTTTCGTCAGTTTGTTCCTATTTTCGGCAGGTTGTGTTCCTATTTTCGGCAGCGCGAATACGGGTCAGAAAATGTTATTATCTATGTAAATATGTACAAAAAAAATGTTTAAAGCAATTTTACACTCTTACTTTCCAAATACTGATGTTAAAAAGCACTTTAATTAATAATTTTATGTTGCTTATTTTGGCCCGTTTTGATTTCCATTTTGATGCGACGTTTAAACAGAGCAGCCATTGACAGTTTGATGGTTATAGCGTACGGTGCGAATTGGCTTACAAATATTTATTTTTCTCTTAAGTTAGTACATTGTTTGTCGTAAAATTGGTGATATTTGGTACAAGAAAGGTCATATTATGTGTCGATATACGCATTGTAGTGTTCTGATCAATTTTTAAAGAAATATTCAGCCAAATCCAAGGTGTGTTATTGTTTCGAGTTTCGGCAGGAGCCCACAACATTGAGCTGTCAAAAATGAACATTTACTGTGTACCTATTTTCGGCAGCATTTAAAGTGAAAAATAACTTATTTATCGTGATTTTAAAATTCCGAACCAGTTAGAATAAATTAAATAAGCATAAAATCTTTAATATACACCACTTTTTCATTGTTTTACTGTTCTGATTCTCTTAATCACAAAACTTGCCGAACCATTGGCTGACAGCAAAGTAGCCGAAAAAAAGCACAATTTATTTGATATTTTGAAAAATACGTAATAAAATGGTGTGAAACTTCGTATGTGAATATCAAATAATTACACTTTCACTACAAAATTGTGTTTTGTGAAATTTTTTACCACATTCGTGCAGAATTTCACGTTTTTAGCTACCCTGCCGAAAATAGGTACACTGCCGAAAACTGGTACAGGCGGTCCCCGAGATACACGGTTAATGGGGACCGAAAACGGCCACAAAATACCGCGTATCTCGAATTTCCGCGTAAGTCGAATCTCGTGGTTTCCAGCTAAAATATCAATAATGGTCGTGTAATTTTGCAAGTAGGGGGAGGTTATAGTTACTTTATGAATTAGTTGATATGATTCTGACTGAATATAACAGTTTTAAACCATTTGAAATAGTTTTTAACATTCGATCAAAACGGAAATTATTTGGCAATTTAAAATTGATGTGTCAAATCAGTACAATTTGCTCAAAGAATTGTCAAATTTAGAAAACCGCGTATCTCCGAATCCGCGTATAAGAGGTACCGTGTATCTCGGGGACCGCCTGTACAGTTACCCTAGGAGCAAAAGCAATGTTTGCATTTTACGAATATTTATGAAAAAGGGCTTTGAACCGGCAAATAAAAAATAGTGTAACATATTTTGATAGTTTATCAACCAGAATAACATTACTTTCATGAAAAATAATAAAAAAATGTTTATTTGTGAGCAGTTTTTGTGAAACTGATGCACTAGCGTGCCGAAAACTGTTTACCCTACTCTTAAATTACCAATAATGTAGCGAAAGGATAGGGATTATTTTAGTCCGATTTGTCTGGCTGGGGATCTCTGAGACGATCTCGTAGACTGCTTGAATTTGGTTGTGGGAATTGAGCATAGACATGACCCTATCAAGATCAGCGGCACAGTGTGAATCATGAAACGTCCTAGTGTTGACCATATGTGTTCTCTGTGTGTTTCAATGACATATATTGTCTGAACCTTTTTCAAAATGGCTGCCAGTGTTGAAAAAAATTGATGGC'
p197
s.