(dp0
S'Anopheles (Nyssorhynchus) albimanus Wiedemann, 1820'
p1
(dp2
S'sp_miro'
p3
S'Anopheles albimanus Wiedemann, 1820'
p4
sS'id_miro'
p5
S'MIRO:40000071'
p6
ssS'Anopheles (Cellia) merus D\xf6nitz, 1902'
p7
(dp8
g3
S'Anopheles merus D\xc3\xb6nitz, 1902'
p9
sg5
S'MIRO:40003534'
p10
ssS'Anopheles (Cellia) nili species complex'
p11
(dp12
g3
S'Anopheles nili species complex'
p13
sg5
S'MIRO:40003551'
p14
ssS'Anopheles (Cellia) melas Theobald, 1903'
p15
(dp16
g3
S'Anopheles melas Theobald, 1903'
p17
sg5
S'MIRO:40003532'
p18
ssS'Anopheles (Nyssorhynchus) aquasalis Curry, 1932'
p19
(dp20
g3
S'Anopheles aquasalis Curry, 1932'
p21
sg5
S'MIRO:40000150'
p22
ssS'Anopheles (Cellia) subpictus species complex'
p23
(dp24
g3
S'Anopheles subpictus species complex'
p25
sg5
S'MIRO:40003603'
p26
ssS'Anopheles (Cellia) koliensis Owen, 1945'
p27
(dp28
g3
S'Anopheles koliensis Owen, 1945'
p29
sg5
S'MIRO:40003506'
p30
ssS'Anopheles (Cellia) dirus species complex'
p31
(dp32
g3
S'Anopheles dirus species complex'
p33
sg5
S'MIRO:40002263'
p34
ssS'Anopheles (Cellia) flavirostris (Ludlow, 1914)'
p35
(dp36
g3
S'Anopheles flavirostris (Ludlow, 1914)'
p37
sg5
S'MIRO:40002282'
p38
ssS'Anopheles (Cellia) farauti species complex'
p39
(dp40
g3
S'Anopheles farauti species complex'
p41
sg5
S'MIRO:40002278'
p42
ssS'Anopheles (Cellia) punctulatus species complex'
p43
(dp44
g3
S'Anopheles punctulatus species complex'
p45
sg5
S'MIRO:40003571'
p46
ssS'Anopheles (Cellia) aconitus D\x9anitz, 1902'
p47
(dp48
g3
S'Anopheles aconitus D\xc3\xb6nitz, 1902'
p49
sg5
S'MIRO:40002218'
p50
ssS'Anopheles (Cellia) arabiensis Patton, 1905'
p51
(dp52
g3
S'Anopheles arabiensis Patton, 1905'
p53
sg5
S'MIRO:40002224'
p54
ssS'Anopheles (Cellia) annularis van der Wulp, 1884'
p55
(dp56
g3
S'Anopheles annularis van der Wulp, 1884'
p57
sg5
S'MIRO:40002220'
p58
ssS'Anopheles (Nyssorhynchus) nuneztovari species complex'
p59
(dp60
g3
S'Anopheles nuneztovari species complex'
p61
sg5
S'MIRO:40000165'
p62
ssS'Anopheles (Cellia) sundaicus species complex'
p63
(dp64
g3
S'Anopheles sundaicus species complex'
p65
sg5
S'MIRO:40003605'
p66
ssS'Anopheles (Cellia) moucheti Evans, 1925'
p67
(dp68
g3
S'Anopheles moucheti Evans, 1925'
p69
sg5
S'MIRO:40003540'
p70
ssS'Anopheles (Nyssorhynchus) marajoara Galv\xe3o &amp; Damasceno, 1942'
p71
(dp72
g3
S'Anopheles marajoara Galv\xc3\xa3o &amp; Damasceno, 1942'
p73
sg5
S'MIRO:40000163'
p74
ssS'Anopheles (Cellia) minimus species complex'
p75
(dp76
g3
S'Anopheles minimus species complex'
p77
sg5
S'MIRO:40003537'
p78
ssS'Anopheles (Nyssorhynchus) albitarsis species complex'
p79
(dp80
g3
S'Anopheles albitarsis species complex'
p81
sg5
S'MIRO:40000151'
p82
ssS'Anopheles (Cellia) superpictus Grassi, 1899'
p83
(dp84
g3
S'Anopheles superpictus Grassi, 1899'
p85
sg5
S'MIRO:40003606'
p86
ssS'Anopheles (Anopheles) labranchiae Falleroni, 1926'
p87
(dp88
g3
S'Anopheles labranchiae Falleroni, 1926'
p89
sg5
S'MIRO:40000120'
p90
ssS'Anopheles (Anopheles) freeborni Aitken, 1939'
p91
(dp92
g3
S'Anopheles freeborni Aitken, 1939'
p93
sg5
S'MIRO:40000090'
p94
ssS'Anopheles (Anopheles) sacharovi Favre, 1903'
p95
(dp96
g3
S'Anopheles sacharovi Favre, 1903'
p97
sg5
S'MIRO:40003445'
p98
ssS'Anopheles (Cellia) balabacensis Baisas, 1936'
p99
(dp100
g3
S'Anopheles balabacensis Baisas, 1936'
p101
sg5
S'MIRO:40002233'
p102
ssS'Anopheles (Cellia) leucosphyrus and Anopheles (Cellia) latens'
p103
(dp104
g3
S'Anopheles leucosphyrus and Anopheles latens'
p105
sg5
S'MIRO:40003511'
p106
ssS'Anopheles (Cellia) maculatus Group'
p107
(dp108
g3
S'Anopheles maculatus Group'
p109
sg5
S'MIRO:40003525'
p110
ssS'Anopheles (Anopheles) quadrimaculatus Say, 1824'
p111
(dp112
g3
S'Anopheles quadrimaculatus Say, 1824'
p113
sg5
S'MIRO:40003441'
p114
ssS'Anopheles (Anopheles) pseudopunctipennis species complex'
p115
(dp116
g3
S'Anopheles pseudopunctipennis species complex'
p117
sg5
S'MIRO:40003429'
p118
ssS'Anopheles (Cellia) sergentii species complex'
p119
(dp120
g3
S'Anopheles sergentii species complex'
p121
sg5
S'MIRO:40003593'
p122
ssS'Anopheles (Cellia) culicifacies species complex'
p123
(dp124
g3
S'Anopheles culicifacies species complex'
p125
sg5
S'MIRO:40002255'
p126
ssS'Anopheles (Anopheles) lesteri Baisas &amp; Hu, 1936 (formerly An. anthropophagus in China)'
p127
(dp128
g3
S'Anopheles lesteri Baisas &amp; Hu, 1936'
p129
sg5
S'MIRO:40000121'
p130
ssS'Anopheles (Anopheles) barbirostris species complex'
p131
(dp132
g3
S'Anopheles barbirostris species complex'
p133
sg5
S'MIRO:40000041'
p134
ssS'Anopheles (Cellia) fluviatilis species complex'
p135
(dp136
g3
S'Anopheles fluviatilis species complex'
p137
sg5
S'MIRO:40003475'
p138
ssS'Anopheles (Anopheles) sinensis species complex'
p139
(dp140
g3
S'Anopheles sinensis species complex'
p141
sg5
S'MIRO:40003452'
p142
ssS'Anopheles (Cellia) gambiae Giles, 1902'
p143
(dp144
g3
S'Anopheles gambiae Giles, 1902'
p145
sg5
S'MIRO:40003829'
p146
ssS'Anopheles (Anopheles) messeae Falleroni, 1926'
p147
(dp148
g3
S'Anopheles messeae Falleroni, 1926'
p149
sg5
S'MIRO:40000139'
p150
ssS'Anopheles (Anopheles) atroparvus van Thiel, 1927'
p151
(dp152
g3
S'Anopheles atroparvus van Thiel, 1927'
p153
sg5
S'MIRO:40000032'
p154
ssS'Anopheles (Cellia) stephensi Liston, 1901'
p155
(dp156
g3
S'Anopheles stephensi Liston, 1901'
p157
sg5
S'MIRO:40003601'
p158
ssS'Anopheles (Cellia) funestus Giles, 1900'
p159
(dp160
g3
S'Anopheles funestus Giles, 1900'
p161
sg5
S'MIRO:40003834'
p162
ssS'Anopheles (Nyssorhynchus) darlingi Root, 1926'
p163
(dp164
g3
S'Anopheles darlingi Root, 1926'
p165
sg5
S'MIRO:40000155'
p166
ss.